Archive member included to satisfy reference by file (symbol)

/usr/local/Cellar/avr-gcc/7.2.0/lib/avr-gcc/7/gcc/avr/7.2.0/avr5/libgcc.a(_divmodhi4.o)
                              ./src/u8g_polygon.o (__divmodhi4)
/usr/local/Cellar/avr-gcc/7.2.0/lib/avr-gcc/7/gcc/avr/7.2.0/avr5/libgcc.a(_exit.o)
                              /usr/local/Cellar/avr-gcc/7.2.0/lib/avr-gcc/7/gcc/avr/7.2.0/../../../../../../avr/lib/avr5/crtatmega16.o (exit)
/usr/local/Cellar/avr-gcc/7.2.0/lib/avr-gcc/7/gcc/avr/7.2.0/avr5/libgcc.a(_tablejump2.o)
                              ./src/chessengine.o (__tablejump2__)
/usr/local/Cellar/avr-gcc/7.2.0/lib/avr-gcc/7/gcc/avr/7.2.0/avr5/libgcc.a(_copy_data.o)
                              ./src/chessengine.o (__do_copy_data)
/usr/local/Cellar/avr-gcc/7.2.0/lib/avr-gcc/7/gcc/avr/7.2.0/avr5/libgcc.a(_clear_bss.o)
                              ./src/chessengine.o (__do_clear_bss)
/usr/local/Cellar/avr-gcc/7.2.0/lib/avr-gcc/7/gcc/avr/7.2.0/avr5/libgcc.a(_umulhisi3.o)
                              ./src/u8g_u16toa.o (__umulhisi3)
/usr/local/Cellar/avr-gcc/7.2.0/lib/avr-gcc/7/gcc/avr/7.2.0/avr5/libgcc.a(_udivmodhi4.o)
                              /usr/local/Cellar/avr-gcc/7.2.0/lib/avr-gcc/7/gcc/avr/7.2.0/avr5/libgcc.a(_divmodhi4.o) (__udivmodhi4)
/usr/local/Cellar/avr-gcc/7.2.0/lib/avr-gcc/7/gcc/avr/7.2.0/../../../../../../avr/lib/avr5/libc.a(memcpy_P.o)
                              ./src/u8g_com_io.o (memcpy_P)

Allocating common symbols
Common symbol       size              file

lrc_u8g             0x2               ./src/chessengine.o
chess_low_edge      0x1               ./src/chessengine.o
u8g                 0x37              ./main.o
u8g_vs_width        0x1               ./src/u8g_virtual_screen.o
u8g_vs_height       0x1               ./src/u8g_virtual_screen.o
u8g_pb_dev_gprof_buf
                    0x80              ./src/u8g_dev_gprof.o
u8g_vs_list         0x10              ./src/u8g_virtual_screen.o
lrc_obj             0xeb              ./src/chessengine.o
u8g_write_flip_disc_matrix
                    0x2               ./src/u8g_dev_flipdisc_2x7.o
u8g_vs_current      0x1               ./src/u8g_virtual_screen.o
global_SREG_backup  0x1               ./src/u8g_state.o
u8g_pg              0x42              ./src/u8g_polygon.o

Memory Configuration

Name             Origin             Length             Attributes
text             0x0000000000000000 0x0000000000020000 xr
data             0x0000000000800060 0x000000000000ffa0 rw !x
eeprom           0x0000000000810000 0x0000000000010000 rw !x
fuse             0x0000000000820000 0x0000000000000400 rw !x
lock             0x0000000000830000 0x0000000000000400 rw !x
signature        0x0000000000840000 0x0000000000000400 rw !x
user_signatures  0x0000000000850000 0x0000000000000400 rw !x
*default*        0x0000000000000000 0xffffffffffffffff

Linker script and memory map

LOAD /usr/local/Cellar/avr-gcc/7.2.0/lib/avr-gcc/7/gcc/avr/7.2.0/../../../../../../avr/lib/avr5/crtatmega16.o
LOAD ./src/chessengine.o
LOAD ./src/u8g_bitmap.o
LOAD ./src/u8g_circle.o
LOAD ./src/u8g_clip.o
LOAD ./src/u8g_com_api.o
LOAD ./src/u8g_com_api_16gr.o
LOAD ./src/u8g_com_arduino_attiny85_hw_spi.o
LOAD ./src/u8g_com_arduino_common.o
LOAD ./src/u8g_com_arduino_fast_parallel.o
LOAD ./src/u8g_com_arduino_hw_spi.o
LOAD ./src/u8g_com_arduino_hw_usart_spi.o
LOAD ./src/u8g_com_arduino_no_en_parallel.o
LOAD ./src/u8g_com_arduino_parallel.o
LOAD ./src/u8g_com_arduino_port_d_wr.o
LOAD ./src/u8g_com_arduino_ssd_i2c.o
LOAD ./src/u8g_com_arduino_st7920_custom.o
LOAD ./src/u8g_com_arduino_st7920_hw_spi.o
LOAD ./src/u8g_com_arduino_st7920_spi.o
LOAD ./src/u8g_com_arduino_std_sw_spi.o
LOAD ./src/u8g_com_arduino_sw_spi.o
LOAD ./src/u8g_com_arduino_t6963.o
LOAD ./src/u8g_com_arduino_uc_i2c.o
LOAD ./src/u8g_com_atmega_hw_spi.o
LOAD ./src/u8g_com_atmega_parallel.o
LOAD ./src/u8g_com_atmega_st7920_hw_spi.o
LOAD ./src/u8g_com_atmega_st7920_spi.o
LOAD ./src/u8g_com_atmega_sw_spi.o
LOAD ./src/u8g_com_i2c.o
LOAD ./src/u8g_com_io.o
LOAD ./src/u8g_com_msp430_hw_spi.o
LOAD ./src/u8g_com_null.o
LOAD ./src/u8g_com_raspberrypi_hw_spi.o
LOAD ./src/u8g_com_raspberrypi_ssd_i2c.o
LOAD ./src/u8g_com_std_sw_spi.o
LOAD ./src/u8g_cursor.o
LOAD ./src/u8g_delay.o
LOAD ./src/u8g_dev_a2_micro_printer.o
LOAD ./src/u8g_dev_flipdisc_2x7.o
LOAD ./src/u8g_dev_gprof.o
LOAD ./src/u8g_dev_ht1632.o
LOAD ./src/u8g_dev_ili9325d_320x240.o
LOAD ./src/u8g_dev_ks0108_128x64.o
LOAD ./src/u8g_dev_lc7981_160x80.o
LOAD ./src/u8g_dev_lc7981_240x128.o
LOAD ./src/u8g_dev_lc7981_240x64.o
LOAD ./src/u8g_dev_lc7981_320x64.o
LOAD ./src/u8g_dev_ld7032_60x32.o
LOAD ./src/u8g_dev_null.o
LOAD ./src/u8g_dev_pcd8544_84x48.o
LOAD ./src/u8g_dev_pcf8812_96x65.o
LOAD ./src/u8g_dev_sbn1661_122x32.o
LOAD ./src/u8g_dev_ssd1306_128x32.o
LOAD ./src/u8g_dev_ssd1306_128x64.o
LOAD ./src/u8g_dev_ssd1306_64x48.o
LOAD ./src/u8g_dev_ssd1309_128x64.o
LOAD ./src/u8g_dev_ssd1322_nhd31oled_bw.o
LOAD ./src/u8g_dev_ssd1322_nhd31oled_gr.o
LOAD ./src/u8g_dev_ssd1325_nhd27oled_bw.o
LOAD ./src/u8g_dev_ssd1325_nhd27oled_bw_new.o
LOAD ./src/u8g_dev_ssd1325_nhd27oled_gr.o
LOAD ./src/u8g_dev_ssd1325_nhd27oled_gr_new.o
LOAD ./src/u8g_dev_ssd1327_96x96_gr.o
LOAD ./src/u8g_dev_ssd1351_128x128.o
LOAD ./src/u8g_dev_ssd1353_160x128.o
LOAD ./src/u8g_dev_st7565_64128n.o
LOAD ./src/u8g_dev_st7565_dogm128.o
LOAD ./src/u8g_dev_st7565_dogm132.o
LOAD ./src/u8g_dev_st7565_lm6059.o
LOAD ./src/u8g_dev_st7565_lm6063.o
LOAD ./src/u8g_dev_st7565_nhd_c12832.o
LOAD ./src/u8g_dev_st7565_nhd_c12864.o
LOAD ./src/u8g_dev_st7687_c144mvgd.o
LOAD ./src/u8g_dev_st7920_128x64.o
LOAD ./src/u8g_dev_st7920_192x32.o
LOAD ./src/u8g_dev_st7920_202x32.o
LOAD ./src/u8g_dev_t6963_128x128.o
LOAD ./src/u8g_dev_t6963_128x64.o
LOAD ./src/u8g_dev_t6963_240x128.o
LOAD ./src/u8g_dev_t6963_240x64.o
LOAD ./src/u8g_dev_tls8204_84x48.o
LOAD ./src/u8g_dev_uc1601_c128032.o
LOAD ./src/u8g_dev_uc1608_240x128.o
LOAD ./src/u8g_dev_uc1608_240x64.o
LOAD ./src/u8g_dev_uc1610_dogxl160.o
LOAD ./src/u8g_dev_uc1611_dogm240.o
LOAD ./src/u8g_dev_uc1611_dogxl240.o
LOAD ./src/u8g_dev_uc1701_dogs102.o
LOAD ./src/u8g_dev_uc1701_mini12864.o
LOAD ./src/u8g_ellipse.o
LOAD ./src/u8g_font.o
LOAD ./src/u8g_font_data.o
LOAD ./src/u8g_line.o
LOAD ./src/u8g_ll_api.o
LOAD ./src/u8g_page.o
LOAD ./src/u8g_pb.o
LOAD ./src/u8g_pb14v1.o
LOAD ./src/u8g_pb16h1.o
LOAD ./src/u8g_pb16h2.o
LOAD ./src/u8g_pb16v1.o
LOAD ./src/u8g_pb16v2.o
LOAD ./src/u8g_pb32h1.o
LOAD ./src/u8g_pb8h1.o
LOAD ./src/u8g_pb8h1f.o
LOAD ./src/u8g_pb8h2.o
LOAD ./src/u8g_pb8h8.o
LOAD ./src/u8g_pb8v1.o
LOAD ./src/u8g_pb8v2.o
LOAD ./src/u8g_pbxh16.o
LOAD ./src/u8g_pbxh24.o
LOAD ./src/u8g_polygon.o
LOAD ./src/u8g_rect.o
LOAD ./src/u8g_rot.o
LOAD ./src/u8g_scale.o
LOAD ./src/u8g_state.o
LOAD ./src/u8g_u16toa.o
LOAD ./src/u8g_u8toa.o
LOAD ./src/u8g_virtual_screen.o
LOAD ./main.o
START GROUP
LOAD /usr/local/Cellar/avr-gcc/7.2.0/lib/avr-gcc/7/gcc/avr/7.2.0/avr5/libgcc.a
LOAD /usr/local/Cellar/avr-gcc/7.2.0/lib/avr-gcc/7/gcc/avr/7.2.0/../../../../../../avr/lib/avr5/libm.a
LOAD /usr/local/Cellar/avr-gcc/7.2.0/lib/avr-gcc/7/gcc/avr/7.2.0/../../../../../../avr/lib/avr5/libc.a
LOAD /usr/local/Cellar/avr-gcc/7.2.0/lib/avr-gcc/7/gcc/avr/7.2.0/../../../../../../avr/lib/avr5/libatmega16.a
END GROUP
                0x0000000000020000                __TEXT_REGION_LENGTH__ = DEFINED (__TEXT_REGION_LENGTH__)?__TEXT_REGION_LENGTH__:0x20000
                0x000000000000ffa0                __DATA_REGION_LENGTH__ = DEFINED (__DATA_REGION_LENGTH__)?__DATA_REGION_LENGTH__:0xffa0
                0x0000000000010000                __EEPROM_REGION_LENGTH__ = DEFINED (__EEPROM_REGION_LENGTH__)?__EEPROM_REGION_LENGTH__:0x10000
                0x0000000000000400                __FUSE_REGION_LENGTH__ = DEFINED (__FUSE_REGION_LENGTH__)?__FUSE_REGION_LENGTH__:0x400
                0x0000000000000400                __LOCK_REGION_LENGTH__ = DEFINED (__LOCK_REGION_LENGTH__)?__LOCK_REGION_LENGTH__:0x400
                0x0000000000000400                __SIGNATURE_REGION_LENGTH__ = DEFINED (__SIGNATURE_REGION_LENGTH__)?__SIGNATURE_REGION_LENGTH__:0x400
                0x0000000000000400                __USER_SIGNATURE_REGION_LENGTH__ = DEFINED (__USER_SIGNATURE_REGION_LENGTH__)?__USER_SIGNATURE_REGION_LENGTH__:0x400

.hash
 *(.hash)

.dynsym
 *(.dynsym)

.dynstr
 *(.dynstr)

.gnu.version
 *(.gnu.version)

.gnu.version_d
 *(.gnu.version_d)

.gnu.version_r
 *(.gnu.version_r)

.rel.init
 *(.rel.init)

.rela.init
 *(.rela.init)

.rel.text
 *(.rel.text)
 *(.rel.text.*)
 *(.rel.gnu.linkonce.t*)

.rela.text
 *(.rela.text)
 *(.rela.text.*)
 *(.rela.gnu.linkonce.t*)

.rel.fini
 *(.rel.fini)

.rela.fini
 *(.rela.fini)

.rel.rodata
 *(.rel.rodata)
 *(.rel.rodata.*)
 *(.rel.gnu.linkonce.r*)

.rela.rodata
 *(.rela.rodata)
 *(.rela.rodata.*)
 *(.rela.gnu.linkonce.r*)

.rel.data
 *(.rel.data)
 *(.rel.data.*)
 *(.rel.gnu.linkonce.d*)

.rela.data
 *(.rela.data)
 *(.rela.data.*)
 *(.rela.gnu.linkonce.d*)

.rel.ctors
 *(.rel.ctors)

.rela.ctors
 *(.rela.ctors)

.rel.dtors
 *(.rel.dtors)

.rela.dtors
 *(.rela.dtors)

.rel.got
 *(.rel.got)

.rela.got
 *(.rela.got)

.rel.bss
 *(.rel.bss)

.rela.bss
 *(.rela.bss)

.rel.plt
 *(.rel.plt)

.rela.plt
 *(.rela.plt)

.text           0x0000000000000000   0x15f5fc
 *(.vectors)
 .vectors       0x0000000000000000       0x54 /usr/local/Cellar/avr-gcc/7.2.0/lib/avr-gcc/7/gcc/avr/7.2.0/../../../../../../avr/lib/avr5/crtatmega16.o
                0x0000000000000000                __vectors
                0x0000000000000000                __vector_default
 *(.vectors)
 *(.progmem.gcc*)
                0x0000000000000054                . = ALIGN (0x2)
                0x0000000000000054                __trampolines_start = .
 *(.trampolines)
 .trampolines   0x0000000000000054        0x0 linker stubs
 *(.trampolines*)
                0x0000000000000054                __trampolines_end = .
 *libprintf_flt.a:*(.progmem.data)
 *libc.a:*(.progmem.data)
 *(.progmem*)
 .progmem.data.ce_dir_offset_rook
                0x0000000000000054        0x5 ./src/chessengine.o
 .progmem.data.ce_dir_offset_bishop
                0x0000000000000059        0x5 ./src/chessengine.o
 .progmem.data.ce_dir_offset_queen
                0x000000000000005e        0x9 ./src/chessengine.o
 .progmem.data.ce_dir_offset_knight
                0x0000000000000067        0x9 ./src/chessengine.o
 .progmem.data.chess_pieces_body_bm
                0x0000000000000070       0x30 ./src/chessengine.o
                0x0000000000000070                chess_pieces_body_bm
 .progmem.data.chess_black_pieces_bm
                0x00000000000000a0       0x30 ./src/chessengine.o
                0x00000000000000a0                chess_black_pieces_bm
 .progmem.data.__c.3714
                0x00000000000000d0        0x8 ./src/chessengine.o
 .progmem.data.u8g_avr_ddr_P
                0x00000000000000d8        0x8 ./src/u8g_com_io.o
                0x00000000000000d8                u8g_avr_ddr_P
 .progmem.data.u8g_avr_port_P
                0x00000000000000e0        0x8 ./src/u8g_com_io.o
                0x00000000000000e0                u8g_avr_port_P
 .progmem.data.u8g_avr_pin_P
                0x00000000000000e8        0x8 ./src/u8g_com_io.o
                0x00000000000000e8                u8g_avr_pin_P
 .progmem.data.u8g_dev_ili9325d_320x240_init_seq
                0x00000000000000f0      0x1e0 ./src/u8g_dev_ili9325d_320x240.o
 .progmem.data.u8g_dev_ili9325d_320x240_page_seq
                0x00000000000002d0       0x12 ./src/u8g_dev_ili9325d_320x240.o
 .progmem.data.u8g_dev_ks0108_128x64_init_seq
                0x00000000000002e2       0x16 ./src/u8g_dev_ks0108_128x64.o
 .progmem.data.u8g_dev_lc7981_160x80_init_seq
                0x00000000000002f8       0x34 ./src/u8g_dev_lc7981_160x80.o
 .progmem.data.u8g_dev_lc7981_240x128_init_seq
                0x000000000000032c       0x34 ./src/u8g_dev_lc7981_240x128.o
 .progmem.data.u8g_dev_lc7981_240x64_init_seq
                0x0000000000000360       0x34 ./src/u8g_dev_lc7981_240x64.o
 .progmem.data.u8g_dev_lc7981_320x64_init_seq
                0x0000000000000394       0x34 ./src/u8g_dev_lc7981_320x64.o
 .progmem.data.u8g_dev_ld7032_60x32_init_seq
                0x00000000000003c8       0x73 ./src/u8g_dev_ld7032_60x32.o
 .progmem.data.u8g_dev_ld7032_60x32_data_start
                0x000000000000043b       0x1d ./src/u8g_dev_ld7032_60x32.o
 .progmem.data.u8g_dev_ld7032_60x32_sleep_on
                0x0000000000000458        0x8 ./src/u8g_dev_ld7032_60x32.o
 .progmem.data.u8g_dev_ld7032_60x32_sleep_off
                0x0000000000000460        0xa ./src/u8g_dev_ld7032_60x32.o
 .progmem.data.u8g_dev_pcd8544_init_seq
                0x000000000000046a       0x1e ./src/u8g_dev_pcd8544_84x48.o
 .progmem.data.u8g_dev_pcd8544_sleep_on
                0x0000000000000488        0xa ./src/u8g_dev_pcd8544_84x48.o
 .progmem.data.u8g_dev_pcd8544_sleep_off
                0x0000000000000492        0xd ./src/u8g_dev_pcd8544_84x48.o
 .progmem.data.u8g_dev_pcf8812_init_seq
                0x000000000000049f       0x1e ./src/u8g_dev_pcf8812_96x65.o
 .progmem.data.u8g_dev_sbn1661_122x32_init_seq
                0x00000000000004bd       0x16 ./src/u8g_dev_sbn1661_122x32.o
 .progmem.data.u8g_dev_ssd1306_128x32_adafruit1_init_seq
                0x00000000000004d3       0x26 ./src/u8g_dev_ssd1306_128x32.o
 .progmem.data.u8g_dev_ssd1306_128x32_adafruit2_init_seq
                0x00000000000004f9       0x26 ./src/u8g_dev_ssd1306_128x32.o
 .progmem.data.u8g_dev_ssd1306_128x32_adafruit3_init_seq
                0x000000000000051f       0x26 ./src/u8g_dev_ssd1306_128x32.o
 .progmem.data.u8g_dev_ssd1306_128x32_univision_init_seq
                0x0000000000000545       0x25 ./src/u8g_dev_ssd1306_128x32.o
 .progmem.data.u8g_dev_ssd1306_128x32_data_start
                0x000000000000056a        0x8 ./src/u8g_dev_ssd1306_128x32.o
 .progmem.data.u8g_dev_ssd13xx_sleep_on
                0x0000000000000572        0x9 ./src/u8g_dev_ssd1306_128x32.o
 .progmem.data.u8g_dev_ssd13xx_sleep_off
                0x000000000000057b        0xb ./src/u8g_dev_ssd1306_128x32.o
 .progmem.data.u8g_dev_ssd1306_128x64_adafruit1_init_seq
                0x0000000000000586       0x26 ./src/u8g_dev_ssd1306_128x64.o
 .progmem.data.u8g_dev_ssd1306_128x64_adafruit2_init_seq
                0x00000000000005ac       0x26 ./src/u8g_dev_ssd1306_128x64.o
 .progmem.data.u8g_dev_ssd1306_128x64_adafruit3_init_seq
                0x00000000000005d2       0x26 ./src/u8g_dev_ssd1306_128x64.o
 .progmem.data.u8g_dev_ssd1306_128x64_univision_init_seq
                0x00000000000005f8       0x25 ./src/u8g_dev_ssd1306_128x64.o
 .progmem.data.u8g_dev_ssd1306_128x64_data_start
                0x000000000000061d        0x8 ./src/u8g_dev_ssd1306_128x64.o
 .progmem.data.u8g_dev_sh1106_128x64_data_start
                0x0000000000000625        0x8 ./src/u8g_dev_ssd1306_128x64.o
 .progmem.data.u8g_dev_ssd13xx_sleep_on
                0x000000000000062d        0x9 ./src/u8g_dev_ssd1306_128x64.o
 .progmem.data.u8g_dev_ssd13xx_sleep_off
                0x0000000000000636        0xb ./src/u8g_dev_ssd1306_128x64.o
 .progmem.data.u8g_dev_ssd1306_64x48_init_seq
                0x0000000000000641       0x24 ./src/u8g_dev_ssd1306_64x48.o
 .progmem.data.u8g_dev_ssd1306_64x48_data_start
                0x0000000000000665        0x8 ./src/u8g_dev_ssd1306_64x48.o
 .progmem.data.u8g_dev_ssd13xx_sleep_on
                0x000000000000066d        0x9 ./src/u8g_dev_ssd1306_64x48.o
 .progmem.data.u8g_dev_ssd13xx_sleep_off
                0x0000000000000676        0xb ./src/u8g_dev_ssd1306_64x48.o
 .progmem.data.u8g_dev_ssd1309_128x64_init_seq
                0x0000000000000681       0x29 ./src/u8g_dev_ssd1309_128x64.o
 .progmem.data.u8g_dev_ssd1309_128x64_data_start
                0x00000000000006aa        0x8 ./src/u8g_dev_ssd1309_128x64.o
 .progmem.data.u8g_dev_ssd13xx_sleep_on
                0x00000000000006b2        0x9 ./src/u8g_dev_ssd1309_128x64.o
 .progmem.data.u8g_dev_ssd13xx_sleep_off
                0x00000000000006bb        0xb ./src/u8g_dev_ssd1309_128x64.o
 .progmem.data.u8g_dev_ssd1322_1bit_nhd_312_init_seq
                0x00000000000006c6       0x7e ./src/u8g_dev_ssd1322_nhd31oled_bw.o
 .progmem.data.u8g_dev_ssd1322_1bit_nhd_312_prepare_page_seq
                0x0000000000000744       0x10 ./src/u8g_dev_ssd1322_nhd31oled_bw.o
 .progmem.data.u8g_dev_ssd13xx_sleep_on
                0x0000000000000754        0x9 ./src/u8g_dev_ssd1322_nhd31oled_bw.o
 .progmem.data.u8g_dev_ssd13xx_sleep_off
                0x000000000000075d        0xb ./src/u8g_dev_ssd1322_nhd31oled_bw.o
 .progmem.data.u8g_dev_ssd1322_2bit_nhd_312_init_seq
                0x0000000000000768       0x7e ./src/u8g_dev_ssd1322_nhd31oled_gr.o
 .progmem.data.u8g_dev_ssd1322_2bit_nhd_312_prepare_page_seq
                0x00000000000007e6       0x10 ./src/u8g_dev_ssd1322_nhd31oled_gr.o
 .progmem.data.u8g_dev_ssd13xx_sleep_on
                0x00000000000007f6        0x9 ./src/u8g_dev_ssd1322_nhd31oled_gr.o
 .progmem.data.u8g_dev_ssd13xx_sleep_off
                0x00000000000007ff        0xb ./src/u8g_dev_ssd1322_nhd31oled_gr.o
 .progmem.data.u8g_dev_ssd1325_nhd_27_12864_init_seq
                0x000000000000080a       0x39 ./src/u8g_dev_ssd1325_nhd27oled_bw_new.o
 .progmem.data.u8g_dev_ssd1325_prepare_row_seq
                0x0000000000000843        0xa ./src/u8g_dev_ssd1325_nhd27oled_bw_new.o
 .progmem.data.u8g_dev_ssd13xx_sleep_on
                0x000000000000084d        0x9 ./src/u8g_dev_ssd1325_nhd27oled_bw_new.o
 .progmem.data.u8g_dev_ssd13xx_sleep_off
                0x0000000000000856        0xb ./src/u8g_dev_ssd1325_nhd27oled_bw_new.o
 .progmem.data.u8g_dev_ssd1325_2bit_nhd_27_12864ucy3_init_seq
                0x0000000000000861       0x39 ./src/u8g_dev_ssd1325_nhd27oled_gr_new.o
 .progmem.data.u8g_dev_ssd1325_2bit_nhd_27_12864ucy3_prepare_page_seq
                0x000000000000089a        0xa ./src/u8g_dev_ssd1325_nhd27oled_gr_new.o
 .progmem.data.u8g_dev_ssd13xx_sleep_on
                0x00000000000008a4        0x9 ./src/u8g_dev_ssd1325_nhd27oled_gr_new.o
 .progmem.data.u8g_dev_ssd13xx_sleep_off
                0x00000000000008ad        0xb ./src/u8g_dev_ssd1325_nhd27oled_gr_new.o
 .progmem.data.u8g_dev_ssd1327_2bit_96x96_init_seq
                0x00000000000008b8       0x5e ./src/u8g_dev_ssd1327_96x96_gr.o
 .progmem.data.u8g_dev_ssd1327_2bit_96x96_prepare_page_seq
                0x0000000000000916        0xa ./src/u8g_dev_ssd1327_96x96_gr.o
 .progmem.data.u8g_dev_ssd1351_128x128_init_seq
                0x0000000000000920       0xd2 ./src/u8g_dev_ssd1351_128x128.o
 .progmem.data.u8g_dev_ssd1351_128x128gh_init_seq
                0x00000000000009f2       0xd2 ./src/u8g_dev_ssd1351_128x128.o
 .progmem.data.u8g_dev_ssd1351_128x128_column_seq
                0x0000000000000ac4       0x19 ./src/u8g_dev_ssd1351_128x128.o
 .progmem.data.u8g_dev_ssd1353_160x128_init_seq
                0x0000000000000add       0x70 ./src/u8g_dev_ssd1353_160x128.o
 .progmem.data.u8g_dev_ssd1353_160x128_column_seq
                0x0000000000000b4d       0x19 ./src/u8g_dev_ssd1353_160x128.o
 .progmem.data.u8g_dev_ssd1353_160x128_sleep_on
                0x0000000000000b66        0x9 ./src/u8g_dev_ssd1353_160x128.o
 .progmem.data.u8g_dev_ssd1353_160x128_sleep_off
                0x0000000000000b6f        0x9 ./src/u8g_dev_ssd1353_160x128.o
 .progmem.data.u8g_dev_st7565_64128n_init_seq
                0x0000000000000b78       0x26 ./src/u8g_dev_st7565_64128n.o
 .progmem.data.u8g_dev_st7565_64128n_data_start
                0x0000000000000b9e        0x8 ./src/u8g_dev_st7565_64128n.o
 .progmem.data.u8g_dev_st7565_64128n_sleep_on
                0x0000000000000ba6        0xc ./src/u8g_dev_st7565_64128n.o
 .progmem.data.u8g_dev_st7565_64128n_sleep_off
                0x0000000000000bb2        0xc ./src/u8g_dev_st7565_64128n.o
 .progmem.data.u8g_dev_st7565_dogm128_init_seq
                0x0000000000000bbe       0x1d ./src/u8g_dev_st7565_dogm128.o
                0x0000000000000bbe                u8g_dev_st7565_dogm128_init_seq
 .progmem.data.u8g_dev_st7565_dogm128_data_start
                0x0000000000000bdb        0x8 ./src/u8g_dev_st7565_dogm128.o
 .progmem.data.u8g_dev_st7565_dogm128_sleep_on
                0x0000000000000be3        0xc ./src/u8g_dev_st7565_dogm128.o
 .progmem.data.u8g_dev_st7565_dogm128_sleep_off
                0x0000000000000bef        0xc ./src/u8g_dev_st7565_dogm128.o
 .progmem.data.u8g_dev_st7565_dogm132_init_seq
                0x0000000000000bfb       0x22 ./src/u8g_dev_st7565_dogm132.o
 .progmem.data.u8g_dev_st7565_dogm132_data_start
                0x0000000000000c1d        0x8 ./src/u8g_dev_st7565_dogm132.o
 .progmem.data.u8g_dev_st7565_dogm132_sleep_on
                0x0000000000000c25        0xc ./src/u8g_dev_st7565_dogm132.o
 .progmem.data.u8g_dev_st7565_dogm132_sleep_off
                0x0000000000000c31        0xc ./src/u8g_dev_st7565_dogm132.o
 .progmem.data.u8g_dev_st7565_lm6059_init_seq
                0x0000000000000c3d       0x26 ./src/u8g_dev_st7565_lm6059.o
 .progmem.data.u8g_dev_st7565_lm6059_data_start
                0x0000000000000c63        0x8 ./src/u8g_dev_st7565_lm6059.o
 .progmem.data.u8g_dev_st7565_lm6059_sleep_on
                0x0000000000000c6b        0xc ./src/u8g_dev_st7565_lm6059.o
 .progmem.data.u8g_dev_st7565_lm6059_sleep_off
                0x0000000000000c77        0xc ./src/u8g_dev_st7565_lm6059.o
 .progmem.data.u8g_dev_st7565_lm6063_init_seq
                0x0000000000000c83       0x26 ./src/u8g_dev_st7565_lm6063.o
 .progmem.data.u8g_dev_st7565_lm6063_data_start
                0x0000000000000ca9        0x8 ./src/u8g_dev_st7565_lm6063.o
 .progmem.data.u8g_dev_st7565_st7565_sleep_on
                0x0000000000000cb1        0xc ./src/u8g_dev_st7565_lm6063.o
 .progmem.data.u8g_dev_st7565_st7565_sleep_off
                0x0000000000000cbd        0xc ./src/u8g_dev_st7565_lm6063.o
 .progmem.data.u8g_dev_st7565_c12832_init_seq
                0x0000000000000cc9       0x22 ./src/u8g_dev_st7565_nhd_c12832.o
 .progmem.data.u8g_dev_st7565_c12832_data_start
                0x0000000000000ceb        0x8 ./src/u8g_dev_st7565_nhd_c12832.o
 .progmem.data.u8g_dev_st7565_c12832_sleep_on
                0x0000000000000cf3        0xc ./src/u8g_dev_st7565_nhd_c12832.o
 .progmem.data.u8g_dev_st7565_c12832_sleep_off
                0x0000000000000cff        0xc ./src/u8g_dev_st7565_nhd_c12832.o
 .progmem.data.u8g_dev_st7565_nhd_c12864_init_seq
                0x0000000000000d0b       0x22 ./src/u8g_dev_st7565_nhd_c12864.o
                0x0000000000000d0b                u8g_dev_st7565_nhd_c12864_init_seq
 .progmem.data.u8g_dev_st7565_nhd_c12864_data_start
                0x0000000000000d2d        0x8 ./src/u8g_dev_st7565_nhd_c12864.o
 .progmem.data.u8g_dev_st7565_c12864_sleep_on
                0x0000000000000d35        0xc ./src/u8g_dev_st7565_nhd_c12864.o
 .progmem.data.u8g_dev_st7565_c12864_sleep_off
                0x0000000000000d41        0xc ./src/u8g_dev_st7565_nhd_c12864.o
 .progmem.data.u8g_dev_st7687_c144mvgd_init_seq
                0x0000000000000d4d       0x8a ./src/u8g_dev_st7687_c144mvgd.o
 .progmem.data.u8g_dev_st7920_128x64_init_seq
                0x0000000000000dd7       0x17 ./src/u8g_dev_st7920_128x64.o
 .progmem.data.u8g_dev_st7920_192x32_init_seq
                0x0000000000000dee       0x17 ./src/u8g_dev_st7920_192x32.o
 .progmem.data.u8g_dev_st7920_202x32_init_seq
                0x0000000000000e05       0x17 ./src/u8g_dev_st7920_202x32.o
 .progmem.data.u8g_dev_t6963_128x128_init_seq
                0x0000000000000e1c       0x49 ./src/u8g_dev_t6963_128x128.o
 .progmem.data.u8g_dev_t6963_128x64_init_seq
                0x0000000000000e65       0x49 ./src/u8g_dev_t6963_128x64.o
 .progmem.data.u8g_dev_t6963_240x128_init_seq
                0x0000000000000eae       0x49 ./src/u8g_dev_t6963_240x128.o
 .progmem.data.u8g_dev_t6963_240x64_init_seq
                0x0000000000000ef7       0x49 ./src/u8g_dev_t6963_240x64.o
 .progmem.data.u8g_dev_tls8204_init_seq
                0x0000000000000f40       0x20 ./src/u8g_dev_tls8204_84x48.o
 .progmem.data.u8g_dev_uc1601_c128032_init_seq
                0x0000000000000f60       0x1f ./src/u8g_dev_uc1601_c128032.o
 .progmem.data.u8g_dev_uc1601_c128032_data_start
                0x0000000000000f7f        0x8 ./src/u8g_dev_uc1601_c128032.o
 .progmem.data.u8g_dev_uc1601_c128032_sleep_on
                0x0000000000000f87        0xc ./src/u8g_dev_uc1601_c128032.o
 .progmem.data.u8g_dev_uc1601_c128032_sleep_off
                0x0000000000000f93        0xc ./src/u8g_dev_uc1601_c128032.o
 .progmem.data.u8g_dev_uc1608_240x128_init_seq
                0x0000000000000f9f       0x23 ./src/u8g_dev_uc1608_240x128.o
 .progmem.data.u8g_dev_uc1608_240x128_data_start
                0x0000000000000fc2        0x8 ./src/u8g_dev_uc1608_240x128.o
 .progmem.data.u8g_dev_uc1608_240x64_init_seq
                0x0000000000000fca       0x22 ./src/u8g_dev_uc1608_240x64.o
 .progmem.data.u8g_dev_uc1608_240x64_data_start
                0x0000000000000fec        0x8 ./src/u8g_dev_uc1608_240x64.o
 .progmem.data.u8g_dev_uc1610_dogxl160_init_seq
                0x0000000000000ff4       0x21 ./src/u8g_dev_uc1610_dogxl160.o
 .progmem.data.u8g_dev_uc1610_dogxl160_data_start
                0x0000000000001015        0x8 ./src/u8g_dev_uc1610_dogxl160.o
 .progmem.data.u8g_dev_uc1611_dogm240_init_seq
                0x000000000000101d       0x16 ./src/u8g_dev_uc1611_dogm240.o
 .progmem.data.u8g_dev_uc1611_dogm240_data_start
                0x0000000000001033        0x8 ./src/u8g_dev_uc1611_dogm240.o
 .progmem.data.u8g_dev_uc1611_dogxl240_init_seq
                0x000000000000103b       0x16 ./src/u8g_dev_uc1611_dogxl240.o
 .progmem.data.u8g_dev_uc1611_dogxl240_data_start
                0x0000000000001051        0x8 ./src/u8g_dev_uc1611_dogxl240.o
 .progmem.data.u8g_dev_dogs102_init_seq
                0x0000000000001059       0x22 ./src/u8g_dev_uc1701_dogs102.o
 .progmem.data.u8g_dev_dogs102_data_start
                0x000000000000107b        0x8 ./src/u8g_dev_uc1701_dogs102.o
 .progmem.data.u8g_dev_uc1701_mini12864_init_seq
                0x0000000000001083       0x23 ./src/u8g_dev_uc1701_mini12864.o
 .progmem.data.u8g_dev_uc1701_mini12864_data_start
                0x00000000000010a6        0x8 ./src/u8g_dev_uc1701_mini12864.o
 .progmem.u8g_font_m2icon_5
                0x00000000000010ae       0xdd ./src/u8g_font_data.o
                0x00000000000010ae                u8g_font_m2icon_5
 .progmem.u8g_font_m2icon_7
                0x000000000000118b      0x113 ./src/u8g_font_data.o
                0x000000000000118b                u8g_font_m2icon_7
 .progmem.u8g_font_m2icon_9
                0x000000000000129e      0x1d7 ./src/u8g_font_data.o
                0x000000000000129e                u8g_font_m2icon_9
 .progmem.u8g_font_u8glib_4
                0x0000000000001475      0x67c ./src/u8g_font_data.o
                0x0000000000001475                u8g_font_u8glib_4
 .progmem.u8g_font_u8glib_4r
                0x0000000000001af1      0x298 ./src/u8g_font_data.o
                0x0000000000001af1                u8g_font_u8glib_4r
 .progmem.u8g_font_6x12_75r
                0x0000000000001d89      0x1ab ./src/u8g_font_data.o
                0x0000000000001d89                u8g_font_6x12_75r
 .progmem.u8g_font_6x13_75r
                0x0000000000001f34      0x1bf ./src/u8g_font_data.o
                0x0000000000001f34                u8g_font_6x13_75r
 .progmem.u8g_font_7x13_75r
                0x00000000000020f3      0x1d7 ./src/u8g_font_data.o
                0x00000000000020f3                u8g_font_7x13_75r
 .progmem.u8g_font_8x13_75r
                0x00000000000022ca      0x1f0 ./src/u8g_font_data.o
                0x00000000000022ca                u8g_font_8x13_75r
 .progmem.u8g_font_9x15_75r
                0x00000000000024ba      0x318 ./src/u8g_font_data.o
                0x00000000000024ba                u8g_font_9x15_75r
 .progmem.u8g_font_9x18_75r
                0x00000000000027d2      0x318 ./src/u8g_font_data.o
                0x00000000000027d2                u8g_font_9x18_75r
 .progmem.u8g_font_cu12_75r
                0x0000000000002aea      0x463 ./src/u8g_font_data.o
                0x0000000000002aea                u8g_font_cu12_75r
 .progmem.u8g_font_unifont_75r
                0x0000000000002f4d      0x244 ./src/u8g_font_data.o
                0x0000000000002f4d                u8g_font_unifont_75r
 .progmem.u8g_font_10x20_75r
                0x0000000000003191      0x2b5 ./src/u8g_font_data.o
                0x0000000000003191                u8g_font_10x20_75r
 .progmem.u8g_font_10x20_67_75
                0x0000000000003446     0x127e ./src/u8g_font_data.o
                0x0000000000003446                u8g_font_10x20_67_75
 .progmem.u8g_font_10x20_78_79
                0x00000000000046c4      0xa4e ./src/u8g_font_data.o
                0x00000000000046c4                u8g_font_10x20_78_79
 .progmem.u8g_font_10x20
                0x0000000000005112      0xd7d ./src/u8g_font_data.o
                0x0000000000005112                u8g_font_10x20
 .progmem.u8g_font_10x20r
                0x0000000000005e8f      0x683 ./src/u8g_font_data.o
                0x0000000000005e8f                u8g_font_10x20r
 .progmem.u8g_font_4x6
                0x0000000000006512      0x5dc ./src/u8g_font_data.o
                0x0000000000006512                u8g_font_4x6
 .progmem.u8g_font_4x6r
                0x0000000000006aee      0x2de ./src/u8g_font_data.o
                0x0000000000006aee                u8g_font_4x6r
 .progmem.u8g_font_5x7
                0x0000000000006dcc      0x658 ./src/u8g_font_data.o
                0x0000000000006dcc                u8g_font_5x7
 .progmem.u8g_font_5x7r
                0x0000000000007424      0x315 ./src/u8g_font_data.o
                0x0000000000007424                u8g_font_5x7r
 .progmem.u8g_font_5x8
                0x0000000000007739      0x69d ./src/u8g_font_data.o
                0x0000000000007739                u8g_font_5x8
 .progmem.u8g_font_5x8r
                0x0000000000007dd6      0x325 ./src/u8g_font_data.o
                0x0000000000007dd6                u8g_font_5x8r
 .progmem.u8g_font_6x10
                0x00000000000080fb      0x74a ./src/u8g_font_data.o
                0x00000000000080fb                u8g_font_6x10
 .progmem.u8g_font_6x10r
                0x0000000000008845      0x379 ./src/u8g_font_data.o
                0x0000000000008845                u8g_font_6x10r
 .progmem.u8g_font_6x12_67_75
                0x0000000000008bbe      0x94e ./src/u8g_font_data.o
                0x0000000000008bbe                u8g_font_6x12_67_75
 .progmem.u8g_font_6x12_78_79
                0x000000000000950c      0x90c ./src/u8g_font_data.o
                0x000000000000950c                u8g_font_6x12_78_79
 .progmem.u8g_font_6x12
                0x0000000000009e18      0x78d ./src/u8g_font_data.o
                0x0000000000009e18                u8g_font_6x12
 .progmem.u8g_font_6x12r
                0x000000000000a5a5      0x382 ./src/u8g_font_data.o
                0x000000000000a5a5                u8g_font_6x12r
 .progmem.u8g_font_6x13_67_75
                0x000000000000a927      0x8bc ./src/u8g_font_data.o
                0x000000000000a927                u8g_font_6x13_67_75
 .progmem.u8g_font_6x13_78_79
                0x000000000000b1e3      0x5be ./src/u8g_font_data.o
                0x000000000000b1e3                u8g_font_6x13_78_79
 .progmem.u8g_font_6x13B
                0x000000000000b7a1      0x87b ./src/u8g_font_data.o
                0x000000000000b7a1                u8g_font_6x13B
 .progmem.u8g_font_6x13Br
                0x000000000000c01c      0x410 ./src/u8g_font_data.o
                0x000000000000c01c                u8g_font_6x13Br
 .progmem.u8g_font_6x13
                0x000000000000c42c      0x870 ./src/u8g_font_data.o
                0x000000000000c42c                u8g_font_6x13
 .progmem.u8g_font_6x13r
                0x000000000000cc9c      0x411 ./src/u8g_font_data.o
                0x000000000000cc9c                u8g_font_6x13r
 .progmem.u8g_font_6x13O
                0x000000000000d0ad      0x872 ./src/u8g_font_data.o
                0x000000000000d0ad                u8g_font_6x13O
 .progmem.u8g_font_6x13Or
                0x000000000000d91f      0x413 ./src/u8g_font_data.o
                0x000000000000d91f                u8g_font_6x13Or
 .progmem.u8g_font_7x13_67_75
                0x000000000000dd32      0x895 ./src/u8g_font_data.o
                0x000000000000dd32                u8g_font_7x13_67_75
 .progmem.u8g_font_7x13B
                0x000000000000e5c7      0x87c ./src/u8g_font_data.o
                0x000000000000e5c7                u8g_font_7x13B
 .progmem.u8g_font_7x13Br
                0x000000000000ee43      0x411 ./src/u8g_font_data.o
                0x000000000000ee43                u8g_font_7x13Br
 .progmem.u8g_font_7x13
                0x000000000000f254      0x86d ./src/u8g_font_data.o
                0x000000000000f254                u8g_font_7x13
 .progmem.u8g_font_7x13r
                0x000000000000fac1      0x40a ./src/u8g_font_data.o
                0x000000000000fac1                u8g_font_7x13r
 .progmem.u8g_font_7x13O
                0x000000000000fecb      0x86e ./src/u8g_font_data.o
                0x000000000000fecb                u8g_font_7x13O
 .progmem.u8g_font_7x13Or
                0x0000000000010739      0x40b ./src/u8g_font_data.o
                0x0000000000010739                u8g_font_7x13Or
 .progmem.u8g_font_7x14B
                0x0000000000010b44      0x956 ./src/u8g_font_data.o
                0x0000000000010b44                u8g_font_7x14B
 .progmem.u8g_font_7x14Br
                0x000000000001149a      0x47f ./src/u8g_font_data.o
                0x000000000001149a                u8g_font_7x14Br
 .progmem.u8g_font_7x14
                0x0000000000011919      0x946 ./src/u8g_font_data.o
                0x0000000000011919                u8g_font_7x14
 .progmem.u8g_font_7x14r
                0x000000000001225f      0x47f ./src/u8g_font_data.o
                0x000000000001225f                u8g_font_7x14r
 .progmem.u8g_font_8x13_67_75
                0x00000000000126de      0x974 ./src/u8g_font_data.o
                0x00000000000126de                u8g_font_8x13_67_75
 .progmem.u8g_font_8x13B
                0x0000000000013052      0x8fe ./src/u8g_font_data.o
                0x0000000000013052                u8g_font_8x13B
 .progmem.u8g_font_8x13Br
                0x0000000000013950      0x463 ./src/u8g_font_data.o
                0x0000000000013950                u8g_font_8x13Br
 .progmem.u8g_font_8x13
                0x0000000000013db3      0x868 ./src/u8g_font_data.o
                0x0000000000013db3                u8g_font_8x13
 .progmem.u8g_font_8x13r
                0x000000000001461b      0x404 ./src/u8g_font_data.o
                0x000000000001461b                u8g_font_8x13r
 .progmem.u8g_font_8x13O
                0x0000000000014a1f      0x869 ./src/u8g_font_data.o
                0x0000000000014a1f                u8g_font_8x13O
 .progmem.u8g_font_8x13Or
                0x0000000000015288      0x405 ./src/u8g_font_data.o
                0x0000000000015288                u8g_font_8x13Or
 .progmem.u8g_font_9x15_67_75
                0x000000000001568d      0xedc ./src/u8g_font_data.o
                0x000000000001568d                u8g_font_9x15_67_75
 .progmem.u8g_font_9x15_78_79
                0x0000000000016569      0xed3 ./src/u8g_font_data.o
                0x0000000000016569                u8g_font_9x15_78_79
 .progmem.u8g_font_9x15B
                0x000000000001743c      0xbae ./src/u8g_font_data.o
                0x000000000001743c                u8g_font_9x15B
 .progmem.u8g_font_9x15Br
                0x0000000000017fea      0x58f ./src/u8g_font_data.o
                0x0000000000017fea                u8g_font_9x15Br
 .progmem.u8g_font_9x15
                0x0000000000018579      0xb8f ./src/u8g_font_data.o
                0x0000000000018579                u8g_font_9x15
 .progmem.u8g_font_9x15r
                0x0000000000019108      0x593 ./src/u8g_font_data.o
                0x0000000000019108                u8g_font_9x15r
 .progmem.u8g_font_9x18_67_75
                0x000000000001969b      0xf60 ./src/u8g_font_data.o
                0x000000000001969b                u8g_font_9x18_67_75
 .progmem.u8g_font_9x18_78_79
                0x000000000001a5fb      0xd08 ./src/u8g_font_data.o
                0x000000000001a5fb                u8g_font_9x18_78_79
 .progmem.u8g_font_9x18B
                0x000000000001b303      0xbd2 ./src/u8g_font_data.o
                0x000000000001b303                u8g_font_9x18B
 .progmem.u8g_font_9x18
                0x000000000001bed5      0xbc3 ./src/u8g_font_data.o
                0x000000000001bed5                u8g_font_9x18
 .progmem.u8g_font_9x18Br
                0x000000000001ca98      0x59a ./src/u8g_font_data.o
                0x000000000001ca98                u8g_font_9x18Br
 .progmem.u8g_font_9x18r
                0x000000000001d032      0x590 ./src/u8g_font_data.o
                0x000000000001d032                u8g_font_9x18r
 .progmem.u8g_font_cursor
                0x000000000001d5c2     0x14a6 ./src/u8g_font_data.o
                0x000000000001d5c2                u8g_font_cursor
 .progmem.u8g_font_cursorr
                0x000000000001ea68      0x1ec ./src/u8g_font_data.o
                0x000000000001ea68                u8g_font_cursorr
 .progmem.u8g_font_micro
                0x000000000001ec54      0x357 ./src/u8g_font_data.o
                0x000000000001ec54                u8g_font_micro
 .progmem.u8g_font_cu12_67_75
                0x000000000001efab      0xf8d ./src/u8g_font_data.o
                0x000000000001efab                u8g_font_cu12_67_75
 .progmem.u8g_font_cu12
                0x000000000001ff38      0xf99 ./src/u8g_font_data.o
                0x000000000001ff38                u8g_font_cu12
 .progmem.u8g_font_fub11
                0x0000000000020ed1      0xf6c ./src/u8g_font_data.o
                0x0000000000020ed1                u8g_font_fub11
 .progmem.u8g_font_fub11r
                0x0000000000021e3d      0x725 ./src/u8g_font_data.o
                0x0000000000021e3d                u8g_font_fub11r
 .progmem.u8g_font_fub11n
                0x0000000000022562      0x118 ./src/u8g_font_data.o
                0x0000000000022562                u8g_font_fub11n
 .progmem.u8g_font_fub14
                0x000000000002267a     0x169c ./src/u8g_font_data.o
                0x000000000002267a                u8g_font_fub14
 .progmem.u8g_font_fub14r
                0x0000000000023d16      0xa78 ./src/u8g_font_data.o
                0x0000000000023d16                u8g_font_fub14r
 .progmem.u8g_font_fub14n
                0x000000000002478e      0x1c4 ./src/u8g_font_data.o
                0x000000000002478e                u8g_font_fub14n
 .progmem.u8g_font_fub17
                0x0000000000024952     0x1b1a ./src/u8g_font_data.o
                0x0000000000024952                u8g_font_fub17
 .progmem.u8g_font_fub17r
                0x000000000002646c      0xc96 ./src/u8g_font_data.o
                0x000000000002646c                u8g_font_fub17r
 .progmem.u8g_font_fub17n
                0x0000000000027102      0x212 ./src/u8g_font_data.o
                0x0000000000027102                u8g_font_fub17n
 .progmem.u8g_font_fub20
                0x0000000000027314     0x22d4 ./src/u8g_font_data.o
                0x0000000000027314                u8g_font_fub20
 .progmem.u8g_font_fub20r
                0x00000000000295e8      0xfb6 ./src/u8g_font_data.o
                0x00000000000295e8                u8g_font_fub20r
 .progmem.u8g_font_fub20n
                0x000000000002a59e      0x25b ./src/u8g_font_data.o
                0x000000000002a59e                u8g_font_fub20n
 .progmem.u8g_font_fub25
                0x000000000002a7f9     0x326c ./src/u8g_font_data.o
                0x000000000002a7f9                u8g_font_fub25
 .progmem.u8g_font_fub25r
                0x000000000002da65     0x1730 ./src/u8g_font_data.o
                0x000000000002da65                u8g_font_fub25r
 .progmem.u8g_font_fub25n
                0x000000000002f195      0x3d5 ./src/u8g_font_data.o
                0x000000000002f195                u8g_font_fub25n
 .progmem.u8g_font_fub30
                0x000000000002f56a     0x4239 ./src/u8g_font_data.o
                0x000000000002f56a                u8g_font_fub30
 .progmem.u8g_font_fub30r
                0x00000000000337a3     0x1e06 ./src/u8g_font_data.o
                0x00000000000337a3                u8g_font_fub30r
 .progmem.u8g_font_fub30n
                0x00000000000355a9      0x4b5 ./src/u8g_font_data.o
                0x00000000000355a9                u8g_font_fub30n
 .progmem.u8g_font_fub35n
                0x0000000000035a5e      0x6a1 ./src/u8g_font_data.o
                0x0000000000035a5e                u8g_font_fub35n
 .progmem.u8g_font_fub42n
                0x00000000000360ff      0x8de ./src/u8g_font_data.o
                0x00000000000360ff                u8g_font_fub42n
 .progmem.u8g_font_fub49n
                0x00000000000369dd      0xc4c ./src/u8g_font_data.o
                0x00000000000369dd                u8g_font_fub49n
 .progmem.u8g_font_fur11
                0x0000000000037629      0xe80 ./src/u8g_font_data.o
                0x0000000000037629                u8g_font_fur11
 .progmem.u8g_font_fur11r
                0x00000000000384a9      0x6c1 ./src/u8g_font_data.o
                0x00000000000384a9                u8g_font_fur11r
 .progmem.u8g_font_fur11n
                0x0000000000038b6a      0x117 ./src/u8g_font_data.o
                0x0000000000038b6a                u8g_font_fur11n
 .progmem.u8g_font_fur14
                0x0000000000038c81     0x14e5 ./src/u8g_font_data.o
                0x0000000000038c81                u8g_font_fur14
 .progmem.u8g_font_fur14r
                0x000000000003a166      0x9b9 ./src/u8g_font_data.o
                0x000000000003a166                u8g_font_fur14r
 .progmem.u8g_font_fur14n
                0x000000000003ab1f      0x1a5 ./src/u8g_font_data.o
                0x000000000003ab1f                u8g_font_fur14n
 .progmem.u8g_font_fur17
                0x000000000003acc4     0x1a8f ./src/u8g_font_data.o
                0x000000000003acc4                u8g_font_fur17
 .progmem.u8g_font_fur17r
                0x000000000003c753      0xc4a ./src/u8g_font_data.o
                0x000000000003c753                u8g_font_fur17r
 .progmem.u8g_font_fur17n
                0x000000000003d39d      0x210 ./src/u8g_font_data.o
                0x000000000003d39d                u8g_font_fur17n
 .progmem.u8g_font_fur20
                0x000000000003d5ad     0x21ce ./src/u8g_font_data.o
                0x000000000003d5ad                u8g_font_fur20
 .progmem.u8g_font_fur20r
                0x000000000003f77b      0xf88 ./src/u8g_font_data.o
                0x000000000003f77b                u8g_font_fur20r
 .progmem.u8g_font_fur20n
                0x0000000000040703      0x268 ./src/u8g_font_data.o
                0x0000000000040703                u8g_font_fur20n
 .progmem.u8g_font_fur25
                0x000000000004096b     0x2ead ./src/u8g_font_data.o
                0x000000000004096b                u8g_font_fur25
 .progmem.u8g_font_fur25r
                0x0000000000043818     0x150d ./src/u8g_font_data.o
                0x0000000000043818                u8g_font_fur25r
 .progmem.u8g_font_fur25n
                0x0000000000044d25      0x31e ./src/u8g_font_data.o
                0x0000000000044d25                u8g_font_fur25n
 .progmem.u8g_font_fur30
                0x0000000000045043     0x4079 ./src/u8g_font_data.o
                0x0000000000045043                u8g_font_fur30
 .progmem.u8g_font_fur30r
                0x00000000000490bc     0x1cd4 ./src/u8g_font_data.o
                0x00000000000490bc                u8g_font_fur30r
 .progmem.u8g_font_fur30n
                0x000000000004ad90      0x4b1 ./src/u8g_font_data.o
                0x000000000004ad90                u8g_font_fur30n
 .progmem.u8g_font_fur35n
                0x000000000004b241      0x5a7 ./src/u8g_font_data.o
                0x000000000004b241                u8g_font_fur35n
 .progmem.u8g_font_fur42n
                0x000000000004b7e8      0x892 ./src/u8g_font_data.o
                0x000000000004b7e8                u8g_font_fur42n
 .progmem.u8g_font_fur49n
                0x000000000004c07a      0xa7b ./src/u8g_font_data.o
                0x000000000004c07a                u8g_font_fur49n
 .progmem.u8g_font_gdb11
                0x000000000004caf5     0x10d9 ./src/u8g_font_data.o
                0x000000000004caf5                u8g_font_gdb11
 .progmem.u8g_font_gdb12
                0x000000000004dbce     0x1212 ./src/u8g_font_data.o
                0x000000000004dbce                u8g_font_gdb12
 .progmem.u8g_font_gdb14
                0x000000000004ede0     0x179c ./src/u8g_font_data.o
                0x000000000004ede0                u8g_font_gdb14
 .progmem.u8g_font_gdb17
                0x000000000005057c     0x1db0 ./src/u8g_font_data.o
                0x000000000005057c                u8g_font_gdb17
 .progmem.u8g_font_gdb20
                0x000000000005232c     0x275d ./src/u8g_font_data.o
                0x000000000005232c                u8g_font_gdb20
 .progmem.u8g_font_gdb25
                0x0000000000054a89     0x3933 ./src/u8g_font_data.o
                0x0000000000054a89                u8g_font_gdb25
 .progmem.u8g_font_gdb30
                0x00000000000583bc     0x4c34 ./src/u8g_font_data.o
                0x00000000000583bc                u8g_font_gdb30
 .progmem.u8g_font_gdb11r
                0x000000000005cff0      0x7d1 ./src/u8g_font_data.o
                0x000000000005cff0                u8g_font_gdb11r
 .progmem.u8g_font_gdb12r
                0x000000000005d7c1      0x88e ./src/u8g_font_data.o
                0x000000000005d7c1                u8g_font_gdb12r
 .progmem.u8g_font_gdb14r
                0x000000000005e04f      0xb1a ./src/u8g_font_data.o
                0x000000000005e04f                u8g_font_gdb14r
 .progmem.u8g_font_gdb17r
                0x000000000005eb69      0xdd4 ./src/u8g_font_data.o
                0x000000000005eb69                u8g_font_gdb17r
 .progmem.u8g_font_gdb20r
                0x000000000005f93d     0x1248 ./src/u8g_font_data.o
                0x000000000005f93d                u8g_font_gdb20r
 .progmem.u8g_font_gdb25r
                0x0000000000060b85     0x1a7b ./src/u8g_font_data.o
                0x0000000000060b85                u8g_font_gdb25r
 .progmem.u8g_font_gdb30r
                0x0000000000062600     0x2398 ./src/u8g_font_data.o
                0x0000000000062600                u8g_font_gdb30r
 .progmem.u8g_font_gdb11n
                0x0000000000064998      0x116 ./src/u8g_font_data.o
                0x0000000000064998                u8g_font_gdb11n
 .progmem.u8g_font_gdb12n
                0x0000000000064aae      0x12d ./src/u8g_font_data.o
                0x0000000000064aae                u8g_font_gdb12n
 .progmem.u8g_font_gdb14n
                0x0000000000064bdb      0x1d0 ./src/u8g_font_data.o
                0x0000000000064bdb                u8g_font_gdb14n
 .progmem.u8g_font_gdb17n
                0x0000000000064dab      0x231 ./src/u8g_font_data.o
                0x0000000000064dab                u8g_font_gdb17n
 .progmem.u8g_font_gdb20n
                0x0000000000064fdc      0x286 ./src/u8g_font_data.o
                0x0000000000064fdc                u8g_font_gdb20n
 .progmem.u8g_font_gdb25n
                0x0000000000065262      0x3d9 ./src/u8g_font_data.o
                0x0000000000065262                u8g_font_gdb25n
 .progmem.u8g_font_gdb30n
                0x000000000006563b      0x518 ./src/u8g_font_data.o
                0x000000000006563b                u8g_font_gdb30n
 .progmem.u8g_font_gdr9
                0x0000000000065b53      0xcb0 ./src/u8g_font_data.o
                0x0000000000065b53                u8g_font_gdr9
 .progmem.u8g_font_gdr10
                0x0000000000066803      0xe56 ./src/u8g_font_data.o
                0x0000000000066803                u8g_font_gdr10
 .progmem.u8g_font_gdr11
                0x0000000000067659      0xf89 ./src/u8g_font_data.o
                0x0000000000067659                u8g_font_gdr11
 .progmem.u8g_font_gdr12
                0x00000000000685e2     0x1068 ./src/u8g_font_data.o
                0x00000000000685e2                u8g_font_gdr12
 .progmem.u8g_font_gdr14
                0x000000000006964a     0x1736 ./src/u8g_font_data.o
                0x000000000006964a                u8g_font_gdr14
 .progmem.u8g_font_gdr17
                0x000000000006ad80     0x1b90 ./src/u8g_font_data.o
                0x000000000006ad80                u8g_font_gdr17
 .progmem.u8g_font_gdr20
                0x000000000006c910     0x239f ./src/u8g_font_data.o
                0x000000000006c910                u8g_font_gdr20
 .progmem.u8g_font_gdr25
                0x000000000006ecaf     0x32f2 ./src/u8g_font_data.o
                0x000000000006ecaf                u8g_font_gdr25
 .progmem.u8g_font_gdr30
                0x0000000000071fa1     0x47c1 ./src/u8g_font_data.o
                0x0000000000071fa1                u8g_font_gdr30
 .progmem.u8g_font_gdr9r
                0x0000000000076762      0x611 ./src/u8g_font_data.o
                0x0000000000076762                u8g_font_gdr9r
 .progmem.u8g_font_gdr10r
                0x0000000000076d73      0x6bb ./src/u8g_font_data.o
                0x0000000000076d73                u8g_font_gdr10r
 .progmem.u8g_font_gdr11r
                0x000000000007742e      0x74c ./src/u8g_font_data.o
                0x000000000007742e                u8g_font_gdr11r
 .progmem.u8g_font_gdr12r
                0x0000000000077b7a      0x7c8 ./src/u8g_font_data.o
                0x0000000000077b7a                u8g_font_gdr12r
 .progmem.u8g_font_gdr14r
                0x0000000000078342      0xae7 ./src/u8g_font_data.o
                0x0000000000078342                u8g_font_gdr14r
 .progmem.u8g_font_gdr17r
                0x0000000000078e29      0xd34 ./src/u8g_font_data.o
                0x0000000000078e29                u8g_font_gdr17r
 .progmem.u8g_font_gdr20r
                0x0000000000079b5d     0x1088 ./src/u8g_font_data.o
                0x0000000000079b5d                u8g_font_gdr20r
 .progmem.u8g_font_gdr25r
                0x000000000007abe5     0x185f ./src/u8g_font_data.o
                0x000000000007abe5                u8g_font_gdr25r
 .progmem.u8g_font_gdr30r
                0x000000000007c444     0x218c ./src/u8g_font_data.o
                0x000000000007c444                u8g_font_gdr30r
 .progmem.u8g_font_gdr9n
                0x000000000007e5d0       0xf8 ./src/u8g_font_data.o
                0x000000000007e5d0                u8g_font_gdr9n
 .progmem.u8g_font_gdr10n
                0x000000000007e6c8      0x107 ./src/u8g_font_data.o
                0x000000000007e6c8                u8g_font_gdr10n
 .progmem.u8g_font_gdr11n
                0x000000000007e7cf      0x114 ./src/u8g_font_data.o
                0x000000000007e7cf                u8g_font_gdr11n
 .progmem.u8g_font_gdr12n
                0x000000000007e8e3      0x11e ./src/u8g_font_data.o
                0x000000000007e8e3                u8g_font_gdr12n
 .progmem.u8g_font_gdr14n
                0x000000000007ea01      0x1ce ./src/u8g_font_data.o
                0x000000000007ea01                u8g_font_gdr14n
 .progmem.u8g_font_gdr17n
                0x000000000007ebcf      0x22f ./src/u8g_font_data.o
                0x000000000007ebcf                u8g_font_gdr17n
 .progmem.u8g_font_gdr20n
                0x000000000007edfe      0x280 ./src/u8g_font_data.o
                0x000000000007edfe                u8g_font_gdr20n
 .progmem.u8g_font_gdr25n
                0x000000000007f07e      0x343 ./src/u8g_font_data.o
                0x000000000007f07e                u8g_font_gdr25n
 .progmem.u8g_font_gdr30n
                0x000000000007f3c1      0x501 ./src/u8g_font_data.o
                0x000000000007f3c1                u8g_font_gdr30n
 .progmem.u8g_font_osb18
                0x000000000007f8c2     0x1dd5 ./src/u8g_font_data.o
                0x000000000007f8c2                u8g_font_osb18
 .progmem.u8g_font_osb21
                0x0000000000081697     0x258c ./src/u8g_font_data.o
                0x0000000000081697                u8g_font_osb21
 .progmem.u8g_font_osb26
                0x0000000000083c23     0x3160 ./src/u8g_font_data.o
                0x0000000000083c23                u8g_font_osb26
 .progmem.u8g_font_osb29
                0x0000000000086d83     0x3dca ./src/u8g_font_data.o
                0x0000000000086d83                u8g_font_osb29
 .progmem.u8g_font_osb35
                0x000000000008ab4d     0x5651 ./src/u8g_font_data.o
                0x000000000008ab4d                u8g_font_osb35
 .progmem.u8g_font_osb18r
                0x000000000009019e      0xe1b ./src/u8g_font_data.o
                0x000000000009019e                u8g_font_osb18r
 .progmem.u8g_font_osb21r
                0x0000000000090fb9     0x11a9 ./src/u8g_font_data.o
                0x0000000000090fb9                u8g_font_osb21r
 .progmem.u8g_font_osb26r
                0x0000000000092162     0x173e ./src/u8g_font_data.o
                0x0000000000092162                u8g_font_osb26r
 .progmem.u8g_font_osb29r
                0x00000000000938a0     0x1d39 ./src/u8g_font_data.o
                0x00000000000938a0                u8g_font_osb29r
 .progmem.u8g_font_osb35r
                0x00000000000955d9     0x2807 ./src/u8g_font_data.o
                0x00000000000955d9                u8g_font_osb35r
 .progmem.u8g_font_osb18n
                0x0000000000097de0      0x26a ./src/u8g_font_data.o
                0x0000000000097de0                u8g_font_osb18n
 .progmem.u8g_font_osb21n
                0x000000000009804a      0x2d3 ./src/u8g_font_data.o
                0x000000000009804a                u8g_font_osb21n
 .progmem.u8g_font_osb26n
                0x000000000009831d      0x387 ./src/u8g_font_data.o
                0x000000000009831d                u8g_font_osb26n
 .progmem.u8g_font_osb29n
                0x00000000000986a4      0x4e9 ./src/u8g_font_data.o
                0x00000000000986a4                u8g_font_osb29n
 .progmem.u8g_font_osb35n
                0x0000000000098b8d      0x61f ./src/u8g_font_data.o
                0x0000000000098b8d                u8g_font_osb35n
 .progmem.u8g_font_osr18
                0x00000000000991ac     0x1e88 ./src/u8g_font_data.o
                0x00000000000991ac                u8g_font_osr18
 .progmem.u8g_font_osr21
                0x000000000009b034     0x253a ./src/u8g_font_data.o
                0x000000000009b034                u8g_font_osr21
 .progmem.u8g_font_osr26
                0x000000000009d56e     0x3382 ./src/u8g_font_data.o
                0x000000000009d56e                u8g_font_osr26
 .progmem.u8g_font_osr29
                0x00000000000a08f0     0x3f68 ./src/u8g_font_data.o
                0x00000000000a08f0                u8g_font_osr29
 .progmem.u8g_font_osr35
                0x00000000000a4858     0x5762 ./src/u8g_font_data.o
                0x00000000000a4858                u8g_font_osr35
 .progmem.u8g_font_osr18r
                0x00000000000a9fba      0xe63 ./src/u8g_font_data.o
                0x00000000000a9fba                u8g_font_osr18r
 .progmem.u8g_font_osr21r
                0x00000000000aae1d     0x112c ./src/u8g_font_data.o
                0x00000000000aae1d                u8g_font_osr21r
 .progmem.u8g_font_osr26r
                0x00000000000abf49     0x17a1 ./src/u8g_font_data.o
                0x00000000000abf49                u8g_font_osr26r
 .progmem.u8g_font_osr29r
                0x00000000000ad6ea     0x1d95 ./src/u8g_font_data.o
                0x00000000000ad6ea                u8g_font_osr29r
 .progmem.u8g_font_osr35r
                0x00000000000af47f     0x2883 ./src/u8g_font_data.o
                0x00000000000af47f                u8g_font_osr35r
 .progmem.u8g_font_osr18n
                0x00000000000b1d02      0x265 ./src/u8g_font_data.o
                0x00000000000b1d02                u8g_font_osr18n
 .progmem.u8g_font_osr21n
                0x00000000000b1f67      0x2d2 ./src/u8g_font_data.o
                0x00000000000b1f67                u8g_font_osr21n
 .progmem.u8g_font_osr26n
                0x00000000000b2239      0x3bb ./src/u8g_font_data.o
                0x00000000000b2239                u8g_font_osr26n
 .progmem.u8g_font_osr29n
                0x00000000000b25f4      0x4ca ./src/u8g_font_data.o
                0x00000000000b25f4                u8g_font_osr29n
 .progmem.u8g_font_osr35n
                0x00000000000b2abe      0x634 ./src/u8g_font_data.o
                0x00000000000b2abe                u8g_font_osr35n
 .progmem.u8g_font_unifont_18_19
                0x00000000000b30f2     0x1ba6 ./src/u8g_font_data.o
                0x00000000000b30f2                u8g_font_unifont_18_19
 .progmem.u8g_font_unifont_72_73
                0x00000000000b4c98     0x1d90 ./src/u8g_font_data.o
                0x00000000000b4c98                u8g_font_unifont_72_73
 .progmem.u8g_font_unifont_67_75
                0x00000000000b6a28      0xd5d ./src/u8g_font_data.o
                0x00000000000b6a28                u8g_font_unifont_67_75
 .progmem.u8g_font_unifont_76
                0x00000000000b7785      0x9ec ./src/u8g_font_data.o
                0x00000000000b7785                u8g_font_unifont_76
 .progmem.u8g_font_unifont_77
                0x00000000000b8171      0x679 ./src/u8g_font_data.o
                0x00000000000b8171                u8g_font_unifont_77
 .progmem.u8g_font_unifont_78_79
                0x00000000000b87ea     0x1bac ./src/u8g_font_data.o
                0x00000000000b87ea                u8g_font_unifont_78_79
 .progmem.u8g_font_unifont_86
                0x00000000000ba396      0x742 ./src/u8g_font_data.o
                0x00000000000ba396                u8g_font_unifont_86
 .progmem.u8g_font_unifont
                0x00000000000baad8     0x15af ./src/u8g_font_data.o
                0x00000000000baad8                u8g_font_unifont
 .progmem.u8g_font_unifontr
                0x00000000000bc087      0x5cd ./src/u8g_font_data.o
                0x00000000000bc087                u8g_font_unifontr
 .progmem.u8g_font_unifont_0_8
                0x00000000000bc654     0x1099 ./src/u8g_font_data.o
                0x00000000000bc654                u8g_font_unifont_0_8
 .progmem.u8g_font_unifont_2_3
                0x00000000000bd6ed     0x1219 ./src/u8g_font_data.o
                0x00000000000bd6ed                u8g_font_unifont_2_3
 .progmem.u8g_font_unifont_4_5
                0x00000000000be906      0xecf ./src/u8g_font_data.o
                0x00000000000be906                u8g_font_unifont_4_5
 .progmem.u8g_font_unifont_8_9
                0x00000000000bf7d5     0x10b7 ./src/u8g_font_data.o
                0x00000000000bf7d5                u8g_font_unifont_8_9
 .progmem.u8g_font_unifont_12_13
                0x00000000000c088c      0xf93 ./src/u8g_font_data.o
                0x00000000000c088c                u8g_font_unifont_12_13
 .progmem.u8g_font_04b_03b
                0x00000000000c181f      0x33a ./src/u8g_font_data.o
                0x00000000000c181f                u8g_font_04b_03b
 .progmem.u8g_font_04b_03bn
                0x00000000000c1b59       0x88 ./src/u8g_font_data.o
                0x00000000000c1b59                u8g_font_04b_03bn
 .progmem.u8g_font_04b_03br
                0x00000000000c1be1      0x2b8 ./src/u8g_font_data.o
                0x00000000000c1be1                u8g_font_04b_03br
 .progmem.u8g_font_04b_03
                0x00000000000c1e99      0x35b ./src/u8g_font_data.o
                0x00000000000c1e99                u8g_font_04b_03
 .progmem.u8g_font_04b_03n
                0x00000000000c21f4       0x88 ./src/u8g_font_data.o
                0x00000000000c21f4                u8g_font_04b_03n
 .progmem.u8g_font_04b_03r
                0x00000000000c227c      0x2d9 ./src/u8g_font_data.o
                0x00000000000c227c                u8g_font_04b_03r
 .progmem.u8g_font_04b_24
                0x00000000000c2555      0x390 ./src/u8g_font_data.o
                0x00000000000c2555                u8g_font_04b_24
 .progmem.u8g_font_04b_24n
                0x00000000000c28e5       0x88 ./src/u8g_font_data.o
                0x00000000000c28e5                u8g_font_04b_24n
 .progmem.u8g_font_04b_24r
                0x00000000000c296d      0x2df ./src/u8g_font_data.o
                0x00000000000c296d                u8g_font_04b_24r
 .progmem.u8g_font_orgv01
                0x00000000000c2c4c      0x5ff ./src/u8g_font_data.o
                0x00000000000c2c4c                u8g_font_orgv01
 .progmem.u8g_font_orgv01r
                0x00000000000c324b      0x2cf ./src/u8g_font_data.o
                0x00000000000c324b                u8g_font_orgv01r
 .progmem.u8g_font_orgv01n
                0x00000000000c351a       0x89 ./src/u8g_font_data.o
                0x00000000000c351a                u8g_font_orgv01n
 .progmem.u8g_font_fixed_v0
                0x00000000000c35a3      0x6a6 ./src/u8g_font_data.o
                0x00000000000c35a3                u8g_font_fixed_v0
 .progmem.u8g_font_fixed_v0r
                0x00000000000c3c49      0x36e ./src/u8g_font_data.o
                0x00000000000c3c49                u8g_font_fixed_v0r
 .progmem.u8g_font_fixed_v0n
                0x00000000000c3fb7       0xa7 ./src/u8g_font_data.o
                0x00000000000c3fb7                u8g_font_fixed_v0n
 .progmem.u8g_font_tpssb
                0x00000000000c405e      0xa60 ./src/u8g_font_data.o
                0x00000000000c405e                u8g_font_tpssb
 .progmem.u8g_font_tpssbr
                0x00000000000c4abe      0x542 ./src/u8g_font_data.o
                0x00000000000c4abe                u8g_font_tpssbr
 .progmem.u8g_font_tpssbn
                0x00000000000c5000       0xf0 ./src/u8g_font_data.o
                0x00000000000c5000                u8g_font_tpssbn
 .progmem.u8g_font_tpss
                0x00000000000c50f0      0xa2d ./src/u8g_font_data.o
                0x00000000000c50f0                u8g_font_tpss
 .progmem.u8g_font_tpssr
                0x00000000000c5b1d      0x525 ./src/u8g_font_data.o
                0x00000000000c5b1d                u8g_font_tpssr
 .progmem.u8g_font_tpssn
                0x00000000000c6042       0xee ./src/u8g_font_data.o
                0x00000000000c6042                u8g_font_tpssn
 .progmem.u8g_font_freedoomr25n
                0x00000000000c6130      0x3af ./src/u8g_font_data.o
                0x00000000000c6130                u8g_font_freedoomr25n
 .progmem.u8g_font_freedoomr10r
                0x00000000000c64df      0x412 ./src/u8g_font_data.o
                0x00000000000c64df                u8g_font_freedoomr10r
 .progmem.u8g_font_courB08
                0x00000000000c68f1      0x979 ./src/u8g_font_data.o
                0x00000000000c68f1                u8g_font_courB08
 .progmem.u8g_font_courB08r
                0x00000000000c726a      0x479 ./src/u8g_font_data.o
                0x00000000000c726a                u8g_font_courB08r
 .progmem.u8g_font_courB10
                0x00000000000c76e3      0xd1b ./src/u8g_font_data.o
                0x00000000000c76e3                u8g_font_courB10
 .progmem.u8g_font_courB10r
                0x00000000000c83fe      0x60f ./src/u8g_font_data.o
                0x00000000000c83fe                u8g_font_courB10r
 .progmem.u8g_font_courB12
                0x00000000000c8a0d      0xf77 ./src/u8g_font_data.o
                0x00000000000c8a0d                u8g_font_courB12
 .progmem.u8g_font_courB12r
                0x00000000000c9984      0x741 ./src/u8g_font_data.o
                0x00000000000c9984                u8g_font_courB12r
 .progmem.u8g_font_courB14
                0x00000000000ca0c5     0x12b0 ./src/u8g_font_data.o
                0x00000000000ca0c5                u8g_font_courB14
 .progmem.u8g_font_courB14r
                0x00000000000cb375      0x877 ./src/u8g_font_data.o
                0x00000000000cb375                u8g_font_courB14r
 .progmem.u8g_font_courB18
                0x00000000000cbbec     0x191d ./src/u8g_font_data.o
                0x00000000000cbbec                u8g_font_courB18
 .progmem.u8g_font_courB18r
                0x00000000000cd509      0xbb9 ./src/u8g_font_data.o
                0x00000000000cd509                u8g_font_courB18r
 .progmem.u8g_font_courB24
                0x00000000000ce0c2     0x2906 ./src/u8g_font_data.o
                0x00000000000ce0c2                u8g_font_courB24
 .progmem.u8g_font_courB24r
                0x00000000000d09c8     0x12a7 ./src/u8g_font_data.o
                0x00000000000d09c8                u8g_font_courB24r
 .progmem.u8g_font_courB24n
                0x00000000000d1c6f      0x2c3 ./src/u8g_font_data.o
                0x00000000000d1c6f                u8g_font_courB24n
 .progmem.u8g_font_courR08
                0x00000000000d1f32      0x981 ./src/u8g_font_data.o
                0x00000000000d1f32                u8g_font_courR08
 .progmem.u8g_font_courR08r
                0x00000000000d28b3      0x485 ./src/u8g_font_data.o
                0x00000000000d28b3                u8g_font_courR08r
 .progmem.u8g_font_courR10
                0x00000000000d2d38      0xbec ./src/u8g_font_data.o
                0x00000000000d2d38                u8g_font_courR10
 .progmem.u8g_font_courR10r
                0x00000000000d3924      0x5a3 ./src/u8g_font_data.o
                0x00000000000d3924                u8g_font_courR10r
 .progmem.u8g_font_courR12
                0x00000000000d3ec7      0xd8f ./src/u8g_font_data.o
                0x00000000000d3ec7                u8g_font_courR12
 .progmem.u8g_font_courR12r
                0x00000000000d4c56      0x638 ./src/u8g_font_data.o
                0x00000000000d4c56                u8g_font_courR12r
 .progmem.u8g_font_courR14
                0x00000000000d528e     0x10b4 ./src/u8g_font_data.o
                0x00000000000d528e                u8g_font_courR14
 .progmem.u8g_font_courR14r
                0x00000000000d6342      0x7c4 ./src/u8g_font_data.o
                0x00000000000d6342                u8g_font_courR14r
 .progmem.u8g_font_courR18
                0x00000000000d6b06     0x1808 ./src/u8g_font_data.o
                0x00000000000d6b06                u8g_font_courR18
 .progmem.u8g_font_courR18r
                0x00000000000d830e      0xb2e ./src/u8g_font_data.o
                0x00000000000d830e                u8g_font_courR18r
 .progmem.u8g_font_courR24
                0x00000000000d8e3c     0x2219 ./src/u8g_font_data.o
                0x00000000000d8e3c                u8g_font_courR24
 .progmem.u8g_font_courR24r
                0x00000000000db055      0xf97 ./src/u8g_font_data.o
                0x00000000000db055                u8g_font_courR24r
 .progmem.u8g_font_courR24n
                0x00000000000dbfec      0x292 ./src/u8g_font_data.o
                0x00000000000dbfec                u8g_font_courR24n
 .progmem.u8g_font_helvB08
                0x00000000000dc27e      0xa75 ./src/u8g_font_data.o
                0x00000000000dc27e                u8g_font_helvB08
 .progmem.u8g_font_helvB08r
                0x00000000000dccf3      0x507 ./src/u8g_font_data.o
                0x00000000000dccf3                u8g_font_helvB08r
 .progmem.u8g_font_helvB08n
                0x00000000000dd1fa       0xe4 ./src/u8g_font_data.o
                0x00000000000dd1fa                u8g_font_helvB08n
 .progmem.u8g_font_helvB10
                0x00000000000dd2de      0xe6c ./src/u8g_font_data.o
                0x00000000000dd2de                u8g_font_helvB10
 .progmem.u8g_font_helvB10r
                0x00000000000de14a      0x6b8 ./src/u8g_font_data.o
                0x00000000000de14a                u8g_font_helvB10r
 .progmem.u8g_font_helvB10n
                0x00000000000de802      0x109 ./src/u8g_font_data.o
                0x00000000000de802                u8g_font_helvB10n
 .progmem.u8g_font_helvB12
                0x00000000000de90b      0xfed ./src/u8g_font_data.o
                0x00000000000de90b                u8g_font_helvB12
 .progmem.u8g_font_helvB12r
                0x00000000000df8f8      0x77a ./src/u8g_font_data.o
                0x00000000000df8f8                u8g_font_helvB12r
 .progmem.u8g_font_helvB12n
                0x00000000000e0072      0x119 ./src/u8g_font_data.o
                0x00000000000e0072                u8g_font_helvB12n
 .progmem.u8g_font_helvB14
                0x00000000000e018b     0x1571 ./src/u8g_font_data.o
                0x00000000000e018b                u8g_font_helvB14
 .progmem.u8g_font_helvB14r
                0x00000000000e16fc      0x9f4 ./src/u8g_font_data.o
                0x00000000000e16fc                u8g_font_helvB14r
 .progmem.u8g_font_helvB14n
                0x00000000000e20f0      0x1a0 ./src/u8g_font_data.o
                0x00000000000e20f0                u8g_font_helvB14n
 .progmem.u8g_font_helvB18
                0x00000000000e2290     0x1d67 ./src/u8g_font_data.o
                0x00000000000e2290                u8g_font_helvB18
 .progmem.u8g_font_helvB18r
                0x00000000000e3ff7      0xd7d ./src/u8g_font_data.o
                0x00000000000e3ff7                u8g_font_helvB18r
 .progmem.u8g_font_helvB18n
                0x00000000000e4d74      0x219 ./src/u8g_font_data.o
                0x00000000000e4d74                u8g_font_helvB18n
 .progmem.u8g_font_helvB24
                0x00000000000e4f8d     0x2d22 ./src/u8g_font_data.o
                0x00000000000e4f8d                u8g_font_helvB24
 .progmem.u8g_font_helvB24r
                0x00000000000e7caf     0x145e ./src/u8g_font_data.o
                0x00000000000e7caf                u8g_font_helvB24r
 .progmem.u8g_font_helvB24n
                0x00000000000e910d      0x2e7 ./src/u8g_font_data.o
                0x00000000000e910d                u8g_font_helvB24n
 .progmem.u8g_font_helvR08
                0x00000000000e93f4      0xa7f ./src/u8g_font_data.o
                0x00000000000e93f4                u8g_font_helvR08
 .progmem.u8g_font_helvR08r
                0x00000000000e9e73      0x4fc ./src/u8g_font_data.o
                0x00000000000e9e73                u8g_font_helvR08r
 .progmem.u8g_font_helvR08n
                0x00000000000ea36f       0xe2 ./src/u8g_font_data.o
                0x00000000000ea36f                u8g_font_helvR08n
 .progmem.u8g_font_helvR10
                0x00000000000ea451      0xdc7 ./src/u8g_font_data.o
                0x00000000000ea451                u8g_font_helvR10
 .progmem.u8g_font_helvR10r
                0x00000000000eb218      0x670 ./src/u8g_font_data.o
                0x00000000000eb218                u8g_font_helvR10r
 .progmem.u8g_font_helvR10n
                0x00000000000eb888      0x10b ./src/u8g_font_data.o
                0x00000000000eb888                u8g_font_helvR10n
 .progmem.u8g_font_helvR12
                0x00000000000eb993      0xfed ./src/u8g_font_data.o
                0x00000000000eb993                u8g_font_helvR12
 .progmem.u8g_font_helvR12r
                0x00000000000ec980      0x773 ./src/u8g_font_data.o
                0x00000000000ec980                u8g_font_helvR12r
 .progmem.u8g_font_helvR12n
                0x00000000000ed0f3      0x122 ./src/u8g_font_data.o
                0x00000000000ed0f3                u8g_font_helvR12n
 .progmem.u8g_font_helvR14
                0x00000000000ed215     0x1338 ./src/u8g_font_data.o
                0x00000000000ed215                u8g_font_helvR14
 .progmem.u8g_font_helvR14r
                0x00000000000ee54d      0x8e9 ./src/u8g_font_data.o
                0x00000000000ee54d                u8g_font_helvR14r
 .progmem.u8g_font_helvR14n
                0x00000000000eee36      0x137 ./src/u8g_font_data.o
                0x00000000000eee36                u8g_font_helvR14n
 .progmem.u8g_font_helvR18
                0x00000000000eef6d     0x1c8b ./src/u8g_font_data.o
                0x00000000000eef6d                u8g_font_helvR18
 .progmem.u8g_font_helvR18r
                0x00000000000f0bf8      0xd35 ./src/u8g_font_data.o
                0x00000000000f0bf8                u8g_font_helvR18r
 .progmem.u8g_font_helvR18n
                0x00000000000f192d      0x218 ./src/u8g_font_data.o
                0x00000000000f192d                u8g_font_helvR18n
 .progmem.u8g_font_helvR24
                0x00000000000f1b45     0x2ab3 ./src/u8g_font_data.o
                0x00000000000f1b45                u8g_font_helvR24
 .progmem.u8g_font_helvR24r
                0x00000000000f45f8     0x1380 ./src/u8g_font_data.o
                0x00000000000f45f8                u8g_font_helvR24r
 .progmem.u8g_font_helvR24n
                0x00000000000f5978      0x2d6 ./src/u8g_font_data.o
                0x00000000000f5978                u8g_font_helvR24n
 .progmem.u8g_font_ncenB08
                0x00000000000f5c4e      0xac8 ./src/u8g_font_data.o
                0x00000000000f5c4e                u8g_font_ncenB08
 .progmem.u8g_font_ncenB08r
                0x00000000000f6716      0x523 ./src/u8g_font_data.o
                0x00000000000f6716                u8g_font_ncenB08r
 .progmem.u8g_font_ncenB10
                0x00000000000f6c39      0xfa3 ./src/u8g_font_data.o
                0x00000000000f6c39                u8g_font_ncenB10
 .progmem.u8g_font_ncenB10r
                0x00000000000f7bdc      0x73d ./src/u8g_font_data.o
                0x00000000000f7bdc                u8g_font_ncenB10r
 .progmem.u8g_font_ncenB12
                0x00000000000f8319     0x127f ./src/u8g_font_data.o
                0x00000000000f8319                u8g_font_ncenB12
 .progmem.u8g_font_ncenB12r
                0x00000000000f9598      0x892 ./src/u8g_font_data.o
                0x00000000000f9598                u8g_font_ncenB12r
 .progmem.u8g_font_ncenB14
                0x00000000000f9e2a     0x15b6 ./src/u8g_font_data.o
                0x00000000000f9e2a                u8g_font_ncenB14
 .progmem.u8g_font_ncenB14r
                0x00000000000fb3e0      0xa2b ./src/u8g_font_data.o
                0x00000000000fb3e0                u8g_font_ncenB14r
 .progmem.u8g_font_ncenB18
                0x00000000000fbe0b     0x1fb2 ./src/u8g_font_data.o
                0x00000000000fbe0b                u8g_font_ncenB18
 .progmem.u8g_font_ncenB18r
                0x00000000000fddbd      0xe98 ./src/u8g_font_data.o
                0x00000000000fddbd                u8g_font_ncenB18r
 .progmem.u8g_font_ncenB24
                0x00000000000fec55     0x32a4 ./src/u8g_font_data.o
                0x00000000000fec55                u8g_font_ncenB24
 .progmem.u8g_font_ncenB24r
                0x0000000000101ef9     0x1731 ./src/u8g_font_data.o
                0x0000000000101ef9                u8g_font_ncenB24r
 .progmem.u8g_font_ncenB24n
                0x000000000010362a      0x364 ./src/u8g_font_data.o
                0x000000000010362a                u8g_font_ncenB24n
 .progmem.u8g_font_ncenR08
                0x000000000010398e      0xa52 ./src/u8g_font_data.o
                0x000000000010398e                u8g_font_ncenR08
 .progmem.u8g_font_ncenR08r
                0x00000000001043e0      0x4f2 ./src/u8g_font_data.o
                0x00000000001043e0                u8g_font_ncenR08r
 .progmem.u8g_font_ncenR10
                0x00000000001048d2      0xee5 ./src/u8g_font_data.o
                0x00000000001048d2                u8g_font_ncenR10
 .progmem.u8g_font_ncenR10r
                0x00000000001057b7      0x6f5 ./src/u8g_font_data.o
                0x00000000001057b7                u8g_font_ncenR10r
 .progmem.u8g_font_ncenR12
                0x0000000000105eac     0x1097 ./src/u8g_font_data.o
                0x0000000000105eac                u8g_font_ncenR12
 .progmem.u8g_font_ncenR12r
                0x0000000000106f43      0x7b8 ./src/u8g_font_data.o
                0x0000000000106f43                u8g_font_ncenR12r
 .progmem.u8g_font_ncenR14
                0x00000000001076fb     0x14c7 ./src/u8g_font_data.o
                0x00000000001076fb                u8g_font_ncenR14
 .progmem.u8g_font_ncenR14r
                0x0000000000108bc2      0x9e6 ./src/u8g_font_data.o
                0x0000000000108bc2                u8g_font_ncenR14r
 .progmem.u8g_font_ncenR18
                0x00000000001095a8     0x1d40 ./src/u8g_font_data.o
                0x00000000001095a8                u8g_font_ncenR18
 .progmem.u8g_font_ncenR18r
                0x000000000010b2e8      0xd95 ./src/u8g_font_data.o
                0x000000000010b2e8                u8g_font_ncenR18r
 .progmem.u8g_font_ncenR24
                0x000000000010c07d     0x2dd1 ./src/u8g_font_data.o
                0x000000000010c07d                u8g_font_ncenR24
 .progmem.u8g_font_ncenR24r
                0x000000000010ee4e     0x14f7 ./src/u8g_font_data.o
                0x000000000010ee4e                u8g_font_ncenR24r
 .progmem.u8g_font_ncenR24n
                0x0000000000110345      0x2e8 ./src/u8g_font_data.o
                0x0000000000110345                u8g_font_ncenR24n
 .progmem.u8g_font_symb08
                0x000000000011062d      0xa34 ./src/u8g_font_data.o
                0x000000000011062d                u8g_font_symb08
 .progmem.u8g_font_symb08r
                0x0000000000111061      0x4bb ./src/u8g_font_data.o
                0x0000000000111061                u8g_font_symb08r
 .progmem.u8g_font_symb10
                0x000000000011151c      0xd69 ./src/u8g_font_data.o
                0x000000000011151c                u8g_font_symb10
 .progmem.u8g_font_symb10r
                0x0000000000112285      0x661 ./src/u8g_font_data.o
                0x0000000000112285                u8g_font_symb10r
 .progmem.u8g_font_symb12
                0x00000000001128e6     0x1028 ./src/u8g_font_data.o
                0x00000000001128e6                u8g_font_symb12
 .progmem.u8g_font_symb12r
                0x000000000011390e      0x7c1 ./src/u8g_font_data.o
                0x000000000011390e                u8g_font_symb12r
 .progmem.u8g_font_symb14
                0x00000000001140cf     0x1239 ./src/u8g_font_data.o
                0x00000000001140cf                u8g_font_symb14
 .progmem.u8g_font_symb14r
                0x0000000000115308      0x8d5 ./src/u8g_font_data.o
                0x0000000000115308                u8g_font_symb14r
 .progmem.u8g_font_symb18
                0x0000000000115bdd     0x19cc ./src/u8g_font_data.o
                0x0000000000115bdd                u8g_font_symb18
 .progmem.u8g_font_symb18r
                0x00000000001175a9      0xce7 ./src/u8g_font_data.o
                0x00000000001175a9                u8g_font_symb18r
 .progmem.u8g_font_symb24
                0x0000000000118290     0x29e7 ./src/u8g_font_data.o
                0x0000000000118290                u8g_font_symb24
 .progmem.u8g_font_symb24r
                0x000000000011ac77     0x14d7 ./src/u8g_font_data.o
                0x000000000011ac77                u8g_font_symb24r
 .progmem.u8g_font_timB08
                0x000000000011c14e      0x9f7 ./src/u8g_font_data.o
                0x000000000011c14e                u8g_font_timB08
 .progmem.u8g_font_timB08r
                0x000000000011cb45      0x4c5 ./src/u8g_font_data.o
                0x000000000011cb45                u8g_font_timB08r
 .progmem.u8g_font_timB10
                0x000000000011d00a      0xdd3 ./src/u8g_font_data.o
                0x000000000011d00a                u8g_font_timB10
 .progmem.u8g_font_timB10r
                0x000000000011dddd      0x660 ./src/u8g_font_data.o
                0x000000000011dddd                u8g_font_timB10r
 .progmem.u8g_font_timB12
                0x000000000011e43d      0xf2f ./src/u8g_font_data.o
                0x000000000011e43d                u8g_font_timB12
 .progmem.u8g_font_timB12r
                0x000000000011f36c      0x72a ./src/u8g_font_data.o
                0x000000000011f36c                u8g_font_timB12r
 .progmem.u8g_font_timB14
                0x000000000011fa96     0x12f3 ./src/u8g_font_data.o
                0x000000000011fa96                u8g_font_timB14
 .progmem.u8g_font_timB14r
                0x0000000000120d89      0x8f7 ./src/u8g_font_data.o
                0x0000000000120d89                u8g_font_timB14r
 .progmem.u8g_font_timB18
                0x0000000000121680     0x1c37 ./src/u8g_font_data.o
                0x0000000000121680                u8g_font_timB18
 .progmem.u8g_font_timB18r
                0x00000000001232b7      0xd1b ./src/u8g_font_data.o
                0x00000000001232b7                u8g_font_timB18r
 .progmem.u8g_font_timB24
                0x0000000000123fd2     0x2a44 ./src/u8g_font_data.o
                0x0000000000123fd2                u8g_font_timB24
 .progmem.u8g_font_timB24r
                0x0000000000126a16     0x138b ./src/u8g_font_data.o
                0x0000000000126a16                u8g_font_timB24r
 .progmem.u8g_font_timB24n
                0x0000000000127da1      0x2d3 ./src/u8g_font_data.o
                0x0000000000127da1                u8g_font_timB24n
 .progmem.u8g_font_timR08
                0x0000000000128074      0x9d0 ./src/u8g_font_data.o
                0x0000000000128074                u8g_font_timR08
 .progmem.u8g_font_timR08r
                0x0000000000128a44      0x4ae ./src/u8g_font_data.o
                0x0000000000128a44                u8g_font_timR08r
 .progmem.u8g_font_timR10
                0x0000000000128ef2      0xd1f ./src/u8g_font_data.o
                0x0000000000128ef2                u8g_font_timR10
 .progmem.u8g_font_timR10r
                0x0000000000129c11      0x623 ./src/u8g_font_data.o
                0x0000000000129c11                u8g_font_timR10r
 .progmem.u8g_font_timR12
                0x000000000012a234      0xf41 ./src/u8g_font_data.o
                0x000000000012a234                u8g_font_timR12
 .progmem.u8g_font_timR12r
                0x000000000012b175      0x6f8 ./src/u8g_font_data.o
                0x000000000012b175                u8g_font_timR12r
 .progmem.u8g_font_timR14
                0x000000000012b86d     0x11e1 ./src/u8g_font_data.o
                0x000000000012b86d                u8g_font_timR14
 .progmem.u8g_font_timR14r
                0x000000000012ca4e      0x86c ./src/u8g_font_data.o
                0x000000000012ca4e                u8g_font_timR14r
 .progmem.u8g_font_timR18
                0x000000000012d2ba     0x1ac2 ./src/u8g_font_data.o
                0x000000000012d2ba                u8g_font_timR18
 .progmem.u8g_font_timR18r
                0x000000000012ed7c      0xc88 ./src/u8g_font_data.o
                0x000000000012ed7c                u8g_font_timR18r
 .progmem.u8g_font_timR24
                0x000000000012fa04     0x28b3 ./src/u8g_font_data.o
                0x000000000012fa04                u8g_font_timR24
 .progmem.u8g_font_timR24r
                0x00000000001322b7     0x129c ./src/u8g_font_data.o
                0x00000000001322b7                u8g_font_timR24r
 .progmem.u8g_font_timR24n
                0x0000000000133553      0x2cd ./src/u8g_font_data.o
                0x0000000000133553                u8g_font_timR24n
 .progmem.u8g_font_p01type
                0x0000000000133820      0x48b ./src/u8g_font_data.o
                0x0000000000133820                u8g_font_p01type
 .progmem.u8g_font_p01typer
                0x0000000000133cab      0x3aa ./src/u8g_font_data.o
                0x0000000000133cab                u8g_font_p01typer
 .progmem.u8g_font_p01typen
                0x0000000000134055       0xba ./src/u8g_font_data.o
                0x0000000000134055                u8g_font_p01typen
 .progmem.u8g_font_lucasfont_alternate
                0x000000000013410f      0x891 ./src/u8g_font_data.o
                0x000000000013410f                u8g_font_lucasfont_alternate
 .progmem.u8g_font_lucasfont_alternater
                0x00000000001349a0      0x472 ./src/u8g_font_data.o
                0x00000000001349a0                u8g_font_lucasfont_alternater
 .progmem.u8g_font_lucasfont_alternaten
                0x0000000000134e12       0xd8 ./src/u8g_font_data.o
                0x0000000000134e12                u8g_font_lucasfont_alternaten
 .progmem.u8g_font_chikita
                0x0000000000134eea      0x8bc ./src/u8g_font_data.o
                0x0000000000134eea                u8g_font_chikita
 .progmem.u8g_font_chikitar
                0x00000000001357a6      0x408 ./src/u8g_font_data.o
                0x00000000001357a6                u8g_font_chikitar
 .progmem.u8g_font_chikitan
                0x0000000000135bae       0xbd ./src/u8g_font_data.o
                0x0000000000135bae                u8g_font_chikitan
 .progmem.u8g_font_pixelle_micro
                0x0000000000135c6b      0x474 ./src/u8g_font_data.o
                0x0000000000135c6b                u8g_font_pixelle_micro
 .progmem.u8g_font_pixelle_micror
                0x00000000001360df      0x3f4 ./src/u8g_font_data.o
                0x00000000001360df                u8g_font_pixelle_micror
 .progmem.u8g_font_pixelle_micron
                0x00000000001364d3       0xbd ./src/u8g_font_data.o
                0x00000000001364d3                u8g_font_pixelle_micron
 .progmem.u8g_font_trixel_square
                0x0000000000136590      0x4d4 ./src/u8g_font_data.o
                0x0000000000136590                u8g_font_trixel_square
 .progmem.u8g_font_trixel_squarer
                0x0000000000136a64      0x3e2 ./src/u8g_font_data.o
                0x0000000000136a64                u8g_font_trixel_squarer
 .progmem.u8g_font_trixel_squaren
                0x0000000000136e46       0xbb ./src/u8g_font_data.o
                0x0000000000136e46                u8g_font_trixel_squaren
 .progmem.u8g_font_robot_de_niro
                0x0000000000136f01      0x560 ./src/u8g_font_data.o
                0x0000000000136f01                u8g_font_robot_de_niro
 .progmem.u8g_font_robot_de_niror
                0x0000000000137461      0x411 ./src/u8g_font_data.o
                0x0000000000137461                u8g_font_robot_de_niror
 .progmem.u8g_font_robot_de_niron
                0x0000000000137872       0xbb ./src/u8g_font_data.o
                0x0000000000137872                u8g_font_robot_de_niron
 .progmem.u8g_font_baby
                0x000000000013792d      0x8b3 ./src/u8g_font_data.o
                0x000000000013792d                u8g_font_baby
 .progmem.u8g_font_babyr
                0x00000000001381e0      0x410 ./src/u8g_font_data.o
                0x00000000001381e0                u8g_font_babyr
 .progmem.u8g_font_babyn
                0x00000000001385f0       0xbd ./src/u8g_font_data.o
                0x00000000001385f0                u8g_font_babyn
 .progmem.u8g_font_blipfest_07
                0x00000000001386ad      0x3b4 ./src/u8g_font_data.o
                0x00000000001386ad                u8g_font_blipfest_07
 .progmem.u8g_font_blipfest_07r
                0x0000000000138a61      0x334 ./src/u8g_font_data.o
                0x0000000000138a61                u8g_font_blipfest_07r
 .progmem.u8g_font_blipfest_07n
                0x0000000000138d95       0xa9 ./src/u8g_font_data.o
                0x0000000000138d95                u8g_font_blipfest_07n
 .progmem.u8g_font_profont10
                0x0000000000138e3e      0xa00 ./src/u8g_font_data.o
                0x0000000000138e3e                u8g_font_profont10
 .progmem.u8g_font_profont10r
                0x000000000013983e      0x452 ./src/u8g_font_data.o
                0x000000000013983e                u8g_font_profont10r
 .progmem.u8g_font_profont11
                0x0000000000139c90      0xad0 ./src/u8g_font_data.o
                0x0000000000139c90                u8g_font_profont11
 .progmem.u8g_font_profont11r
                0x000000000013a760      0x4b0 ./src/u8g_font_data.o
                0x000000000013a760                u8g_font_profont11r
 .progmem.u8g_font_profont12
                0x000000000013ac10      0xb5b ./src/u8g_font_data.o
                0x000000000013ac10                u8g_font_profont12
 .progmem.u8g_font_profont12r
                0x000000000013b76b      0x4ea ./src/u8g_font_data.o
                0x000000000013b76b                u8g_font_profont12r
 .progmem.u8g_font_profont15
                0x000000000013bc55      0xc72 ./src/u8g_font_data.o
                0x000000000013bc55                u8g_font_profont15
 .progmem.u8g_font_profont15r
                0x000000000013c8c7      0x55c ./src/u8g_font_data.o
                0x000000000013c8c7                u8g_font_profont15r
 .progmem.u8g_font_profont17
                0x000000000013ce23      0xe61 ./src/u8g_font_data.o
                0x000000000013ce23                u8g_font_profont17
 .progmem.u8g_font_profont17r
                0x000000000013dc84      0x636 ./src/u8g_font_data.o
                0x000000000013dc84                u8g_font_profont17r
 .progmem.u8g_font_profont22
                0x000000000013e2ba     0x1936 ./src/u8g_font_data.o
                0x000000000013e2ba                u8g_font_profont22
 .progmem.u8g_font_profont22r
                0x000000000013fbf0      0xa9f ./src/u8g_font_data.o
                0x000000000013fbf0                u8g_font_profont22r
 .progmem.u8g_font_profont29
                0x000000000014068f     0x21da ./src/u8g_font_data.o
                0x000000000014068f                u8g_font_profont29
 .progmem.u8g_font_profont29r
                0x0000000000142869      0xe87 ./src/u8g_font_data.o
                0x0000000000142869                u8g_font_profont29r
 .progmem.u8g_font_fub20t
                0x00000000001436f0      0x1dd ./src/u8g_font_data.o
                0x00000000001436f0                u8g_font_fub20t
 .progmem.u8g_font_unifont_0_10
                0x00000000001438cd     0x1410 ./src/u8g_font_data.o
                0x00000000001438cd                u8g_font_unifont_0_10
 .progmem.u8g_font_unifont_0_11
                0x0000000000144cdd      0xca8 ./src/u8g_font_data.o
                0x0000000000144cdd                u8g_font_unifont_0_11
                0x0000000000145986                . = ALIGN (0x2)
 *fill*         0x0000000000145985        0x1 
 *(.lowtext)
 *(.lowtext*)
                0x0000000000145986                __ctors_start = .
 *(.ctors)
                0x0000000000145986                __ctors_end = .
                0x0000000000145986                __dtors_start = .
 *(.dtors)
                0x0000000000145986                __dtors_end = .
 SORT(*)(.ctors)
 SORT(*)(.dtors)
 *(.init0)
 .init0         0x0000000000145986        0x0 /usr/local/Cellar/avr-gcc/7.2.0/lib/avr-gcc/7/gcc/avr/7.2.0/../../../../../../avr/lib/avr5/crtatmega16.o
                0x0000000000145986                __init
 *(.init0)
 *(.init1)
 *(.init1)
 *(.init2)
 .init2         0x0000000000145986        0xc /usr/local/Cellar/avr-gcc/7.2.0/lib/avr-gcc/7/gcc/avr/7.2.0/../../../../../../avr/lib/avr5/crtatmega16.o
 *(.init2)
 *(.init3)
 *(.init3)
 *(.init4)
 .init4         0x0000000000145992       0x16 /usr/local/Cellar/avr-gcc/7.2.0/lib/avr-gcc/7/gcc/avr/7.2.0/avr5/libgcc.a(_copy_data.o)
                0x0000000000145992                __do_copy_data
 .init4         0x00000000001459a8       0x10 /usr/local/Cellar/avr-gcc/7.2.0/lib/avr-gcc/7/gcc/avr/7.2.0/avr5/libgcc.a(_clear_bss.o)
                0x00000000001459a8                __do_clear_bss
 *(.init4)
 *(.init5)
 *(.init5)
 *(.init6)
 *(.init6)
 *(.init7)
 *(.init7)
 *(.init8)
 *(.init8)
 *(.init9)
 .init9         0x00000000001459b8        0x8 /usr/local/Cellar/avr-gcc/7.2.0/lib/avr-gcc/7/gcc/avr/7.2.0/../../../../../../avr/lib/avr5/crtatmega16.o
 *(.init9)
 *(.text)
 .text          0x00000000001459c0        0x4 /usr/local/Cellar/avr-gcc/7.2.0/lib/avr-gcc/7/gcc/avr/7.2.0/../../../../../../avr/lib/avr5/crtatmega16.o
                0x00000000001459c0                __vector_20
                0x00000000001459c0                __vector_12
                0x00000000001459c0                __bad_interrupt
                0x00000000001459c0                __vector_6
                0x00000000001459c0                __vector_3
                0x00000000001459c0                __vector_11
                0x00000000001459c0                __vector_13
                0x00000000001459c0                __vector_17
                0x00000000001459c0                __vector_19
                0x00000000001459c0                __vector_7
                0x00000000001459c0                __vector_5
                0x00000000001459c0                __vector_4
                0x00000000001459c0                __vector_9
                0x00000000001459c0                __vector_2
                0x00000000001459c0                __vector_15
                0x00000000001459c0                __vector_8
                0x00000000001459c0                __vector_14
                0x00000000001459c0                __vector_10
                0x00000000001459c0                __vector_16
                0x00000000001459c0                __vector_18
                0x00000000001459c0                __vector_1
 .text          0x00000000001459c4        0x0 ./src/chessengine.o
 .text          0x00000000001459c4        0x0 ./src/u8g_bitmap.o
 .text          0x00000000001459c4        0x0 ./src/u8g_circle.o
 .text          0x00000000001459c4        0x0 ./src/u8g_clip.o
 .text          0x00000000001459c4        0x0 ./src/u8g_com_api.o
 .text          0x00000000001459c4        0x0 ./src/u8g_com_api_16gr.o
 .text          0x00000000001459c4        0x0 ./src/u8g_com_arduino_attiny85_hw_spi.o
 .text          0x00000000001459c4        0x0 ./src/u8g_com_arduino_common.o
 .text          0x00000000001459c4        0x0 ./src/u8g_com_arduino_fast_parallel.o
 .text          0x00000000001459c4        0x0 ./src/u8g_com_arduino_hw_spi.o
 .text          0x00000000001459c4        0x0 ./src/u8g_com_arduino_hw_usart_spi.o
 .text          0x00000000001459c4        0x0 ./src/u8g_com_arduino_no_en_parallel.o
 .text          0x00000000001459c4        0x0 ./src/u8g_com_arduino_parallel.o
 .text          0x00000000001459c4        0x0 ./src/u8g_com_arduino_port_d_wr.o
 .text          0x00000000001459c4        0x0 ./src/u8g_com_arduino_ssd_i2c.o
 .text          0x00000000001459c4        0x0 ./src/u8g_com_arduino_st7920_custom.o
 .text          0x00000000001459c4        0x0 ./src/u8g_com_arduino_st7920_hw_spi.o
 .text          0x00000000001459c4        0x0 ./src/u8g_com_arduino_st7920_spi.o
 .text          0x00000000001459c4        0x0 ./src/u8g_com_arduino_std_sw_spi.o
 .text          0x00000000001459c4        0x0 ./src/u8g_com_arduino_sw_spi.o
 .text          0x00000000001459c4        0x0 ./src/u8g_com_arduino_t6963.o
 .text          0x00000000001459c4        0x0 ./src/u8g_com_arduino_uc_i2c.o
 .text          0x00000000001459c4        0x0 ./src/u8g_com_atmega_hw_spi.o
 .text          0x00000000001459c4        0x0 ./src/u8g_com_atmega_parallel.o
 .text          0x00000000001459c4        0x0 ./src/u8g_com_atmega_st7920_hw_spi.o
 .text          0x00000000001459c4        0x0 ./src/u8g_com_atmega_st7920_spi.o
 .text          0x00000000001459c4        0x0 ./src/u8g_com_atmega_sw_spi.o
 .text          0x00000000001459c4        0x0 ./src/u8g_com_i2c.o
 .text          0x00000000001459c4        0x0 ./src/u8g_com_io.o
 .text          0x00000000001459c4        0x0 ./src/u8g_com_msp430_hw_spi.o
 .text          0x00000000001459c4        0x0 ./src/u8g_com_null.o
 .text          0x00000000001459c4        0x0 ./src/u8g_com_raspberrypi_hw_spi.o
 .text          0x00000000001459c4        0x0 ./src/u8g_com_raspberrypi_ssd_i2c.o
 .text          0x00000000001459c4        0x0 ./src/u8g_com_std_sw_spi.o
 .text          0x00000000001459c4        0x0 ./src/u8g_cursor.o
 .text          0x00000000001459c4        0x0 ./src/u8g_delay.o
 .text          0x00000000001459c4        0x0 ./src/u8g_dev_a2_micro_printer.o
 .text          0x00000000001459c4        0x0 ./src/u8g_dev_flipdisc_2x7.o
 .text          0x00000000001459c4        0x0 ./src/u8g_dev_gprof.o
 .text          0x00000000001459c4        0x0 ./src/u8g_dev_ht1632.o
 .text          0x00000000001459c4        0x0 ./src/u8g_dev_ili9325d_320x240.o
 .text          0x00000000001459c4        0x0 ./src/u8g_dev_ks0108_128x64.o
 .text          0x00000000001459c4        0x0 ./src/u8g_dev_lc7981_160x80.o
 .text          0x00000000001459c4        0x0 ./src/u8g_dev_lc7981_240x128.o
 .text          0x00000000001459c4        0x0 ./src/u8g_dev_lc7981_240x64.o
 .text          0x00000000001459c4        0x0 ./src/u8g_dev_lc7981_320x64.o
 .text          0x00000000001459c4        0x0 ./src/u8g_dev_ld7032_60x32.o
 .text          0x00000000001459c4        0x0 ./src/u8g_dev_null.o
 .text          0x00000000001459c4        0x0 ./src/u8g_dev_pcd8544_84x48.o
 .text          0x00000000001459c4        0x0 ./src/u8g_dev_pcf8812_96x65.o
 .text          0x00000000001459c4        0x0 ./src/u8g_dev_sbn1661_122x32.o
 .text          0x00000000001459c4        0x0 ./src/u8g_dev_ssd1306_128x32.o
 .text          0x00000000001459c4        0x0 ./src/u8g_dev_ssd1306_128x64.o
 .text          0x00000000001459c4        0x0 ./src/u8g_dev_ssd1306_64x48.o
 .text          0x00000000001459c4        0x0 ./src/u8g_dev_ssd1309_128x64.o
 .text          0x00000000001459c4        0x0 ./src/u8g_dev_ssd1322_nhd31oled_bw.o
 .text          0x00000000001459c4        0x0 ./src/u8g_dev_ssd1322_nhd31oled_gr.o
 .text          0x00000000001459c4        0x0 ./src/u8g_dev_ssd1325_nhd27oled_bw.o
 .text          0x00000000001459c4        0x0 ./src/u8g_dev_ssd1325_nhd27oled_bw_new.o
 .text          0x00000000001459c4        0x0 ./src/u8g_dev_ssd1325_nhd27oled_gr.o
 .text          0x00000000001459c4        0x0 ./src/u8g_dev_ssd1325_nhd27oled_gr_new.o
 .text          0x00000000001459c4        0x0 ./src/u8g_dev_ssd1327_96x96_gr.o
 .text          0x00000000001459c4        0x0 ./src/u8g_dev_ssd1351_128x128.o
 .text          0x00000000001459c4        0x0 ./src/u8g_dev_ssd1353_160x128.o
 .text          0x00000000001459c4        0x0 ./src/u8g_dev_st7565_64128n.o
 .text          0x00000000001459c4        0x0 ./src/u8g_dev_st7565_dogm128.o
 .text          0x00000000001459c4        0x0 ./src/u8g_dev_st7565_dogm132.o
 .text          0x00000000001459c4        0x0 ./src/u8g_dev_st7565_lm6059.o
 .text          0x00000000001459c4        0x0 ./src/u8g_dev_st7565_lm6063.o
 .text          0x00000000001459c4        0x0 ./src/u8g_dev_st7565_nhd_c12832.o
 .text          0x00000000001459c4        0x0 ./src/u8g_dev_st7565_nhd_c12864.o
 .text          0x00000000001459c4        0x0 ./src/u8g_dev_st7687_c144mvgd.o
 .text          0x00000000001459c4        0x0 ./src/u8g_dev_st7920_128x64.o
 .text          0x00000000001459c4        0x0 ./src/u8g_dev_st7920_192x32.o
 .text          0x00000000001459c4        0x0 ./src/u8g_dev_st7920_202x32.o
 .text          0x00000000001459c4        0x0 ./src/u8g_dev_t6963_128x128.o
 .text          0x00000000001459c4        0x0 ./src/u8g_dev_t6963_128x64.o
 .text          0x00000000001459c4        0x0 ./src/u8g_dev_t6963_240x128.o
 .text          0x00000000001459c4        0x0 ./src/u8g_dev_t6963_240x64.o
 .text          0x00000000001459c4        0x0 ./src/u8g_dev_tls8204_84x48.o
 .text          0x00000000001459c4        0x0 ./src/u8g_dev_uc1601_c128032.o
 .text          0x00000000001459c4        0x0 ./src/u8g_dev_uc1608_240x128.o
 .text          0x00000000001459c4        0x0 ./src/u8g_dev_uc1608_240x64.o
 .text          0x00000000001459c4        0x0 ./src/u8g_dev_uc1610_dogxl160.o
 .text          0x00000000001459c4        0x0 ./src/u8g_dev_uc1611_dogm240.o
 .text          0x00000000001459c4        0x0 ./src/u8g_dev_uc1611_dogxl240.o
 .text          0x00000000001459c4        0x0 ./src/u8g_dev_uc1701_dogs102.o
 .text          0x00000000001459c4        0x0 ./src/u8g_dev_uc1701_mini12864.o
 .text          0x00000000001459c4        0x0 ./src/u8g_ellipse.o
 .text          0x00000000001459c4        0x0 ./src/u8g_font.o
 .text          0x00000000001459c4        0x0 ./src/u8g_font_data.o
 .text          0x00000000001459c4        0x0 ./src/u8g_line.o
 .text          0x00000000001459c4        0x0 ./src/u8g_ll_api.o
 .text          0x00000000001459c4        0x0 ./src/u8g_page.o
 .text          0x00000000001459c4        0x0 ./src/u8g_pb.o
 .text          0x00000000001459c4        0x0 ./src/u8g_pb14v1.o
 .text          0x00000000001459c4        0x0 ./src/u8g_pb16h1.o
 .text          0x00000000001459c4        0x0 ./src/u8g_pb16h2.o
 .text          0x00000000001459c4        0x0 ./src/u8g_pb16v1.o
 .text          0x00000000001459c4        0x0 ./src/u8g_pb16v2.o
 .text          0x00000000001459c4        0x0 ./src/u8g_pb32h1.o
 .text          0x00000000001459c4        0x0 ./src/u8g_pb8h1.o
 .text          0x00000000001459c4        0x0 ./src/u8g_pb8h1f.o
 .text          0x00000000001459c4        0x0 ./src/u8g_pb8h2.o
 .text          0x00000000001459c4        0x0 ./src/u8g_pb8h8.o
 .text          0x00000000001459c4        0x0 ./src/u8g_pb8v1.o
 .text          0x00000000001459c4        0x0 ./src/u8g_pb8v2.o
 .text          0x00000000001459c4        0x0 ./src/u8g_pbxh16.o
 .text          0x00000000001459c4        0x0 ./src/u8g_pbxh24.o
 .text          0x00000000001459c4        0x0 ./src/u8g_polygon.o
 .text          0x00000000001459c4        0x0 ./src/u8g_rect.o
 .text          0x00000000001459c4        0x0 ./src/u8g_rot.o
 .text          0x00000000001459c4        0x0 ./src/u8g_scale.o
 .text          0x00000000001459c4        0x0 ./src/u8g_state.o
 .text          0x00000000001459c4        0x0 ./src/u8g_u16toa.o
 .text          0x00000000001459c4        0x0 ./src/u8g_u8toa.o
 .text          0x00000000001459c4        0x0 ./src/u8g_virtual_screen.o
 .text          0x00000000001459c4        0x0 ./main.o
 .text          0x00000000001459c4        0x0 /usr/local/Cellar/avr-gcc/7.2.0/lib/avr-gcc/7/gcc/avr/7.2.0/avr5/libgcc.a(_divmodhi4.o)
 .text          0x00000000001459c4        0x0 /usr/local/Cellar/avr-gcc/7.2.0/lib/avr-gcc/7/gcc/avr/7.2.0/avr5/libgcc.a(_exit.o)
 .text          0x00000000001459c4        0x0 /usr/local/Cellar/avr-gcc/7.2.0/lib/avr-gcc/7/gcc/avr/7.2.0/avr5/libgcc.a(_tablejump2.o)
 .text          0x00000000001459c4        0x0 /usr/local/Cellar/avr-gcc/7.2.0/lib/avr-gcc/7/gcc/avr/7.2.0/avr5/libgcc.a(_copy_data.o)
 .text          0x00000000001459c4        0x0 /usr/local/Cellar/avr-gcc/7.2.0/lib/avr-gcc/7/gcc/avr/7.2.0/avr5/libgcc.a(_clear_bss.o)
 .text          0x00000000001459c4        0x0 /usr/local/Cellar/avr-gcc/7.2.0/lib/avr-gcc/7/gcc/avr/7.2.0/avr5/libgcc.a(_umulhisi3.o)
 .text          0x00000000001459c4        0x0 /usr/local/Cellar/avr-gcc/7.2.0/lib/avr-gcc/7/gcc/avr/7.2.0/avr5/libgcc.a(_udivmodhi4.o)
 .text          0x00000000001459c4        0x0 /usr/local/Cellar/avr-gcc/7.2.0/lib/avr-gcc/7/gcc/avr/7.2.0/../../../../../../avr/lib/avr5/libc.a(memcpy_P.o)
                0x00000000001459c4                . = ALIGN (0x2)
 *(.text.*)
 .text.stack_GetCurrElement
                0x00000000001459c4       0x16 ./src/chessengine.o
                0x00000000001459c4                stack_GetCurrElement
 .text.stack_Push
                0x00000000001459da       0x68 ./src/chessengine.o
                0x00000000001459da                stack_Push
 .text.stack_Pop
                0x0000000000145a42       0x40 ./src/chessengine.o
                0x0000000000145a42                stack_Pop
 .text.stack_InitCurrElement
                0x0000000000145a82       0x40 ./src/chessengine.o
                0x0000000000145a82                stack_InitCurrElement
 .text.stack_Init
                0x0000000000145ac2       0x4e ./src/chessengine.o
                0x0000000000145ac2                stack_Init
 .text.stack_SetMove
                0x0000000000145b10       0x6a ./src/chessengine.o
                0x0000000000145b10                stack_SetMove
 .text.cu_NextPos
                0x0000000000145b7a       0x3e ./src/chessengine.o
                0x0000000000145b7a                cu_NextPos
 .text.cu_PrevPos
                0x0000000000145bb8       0x42 ./src/chessengine.o
                0x0000000000145bb8                cu_PrevPos
 .text.cu_gpos2bpos
                0x0000000000145bfa       0x36 ./src/chessengine.o
 .text.cp_Construct
                0x0000000000145c30       0x2a ./src/chessengine.o
 .text.cp_GetPiece
                0x0000000000145c5a       0x1c ./src/chessengine.o
 .text.cp_GetColor
                0x0000000000145c76       0x24 ./src/chessengine.o
 .text.cp_GetFromBoard
                0x0000000000145c9a       0x26 ./src/chessengine.o
                0x0000000000145c9a                cp_GetFromBoard
 .text.cp_SetOnBoard
                0x0000000000145cc0       0x2e ./src/chessengine.o
                0x0000000000145cc0                cp_SetOnBoard
 .text.cu_ClearBoard
                0x0000000000145cee       0x58 ./src/chessengine.o
                0x0000000000145cee                cu_ClearBoard
 .text.chess_SetupBoardTest01
                0x0000000000145d46       0x50 ./src/chessengine.o
                0x0000000000145d46                chess_SetupBoardTest01
 .text.chess_SetupBoard
                0x0000000000145d96      0x124 ./src/chessengine.o
                0x0000000000145d96                chess_SetupBoard
 .text.cu_IsIllegalPosition
                0x0000000000145eba       0x50 ./src/chessengine.o
                0x0000000000145eba                cu_IsIllegalPosition
 .text.ce_Eval  0x0000000000145f0a      0x1f8 ./src/chessengine.o
                0x0000000000145f0a                ce_Eval
 .text.cu_ClearMoveHistory
                0x0000000000146102       0x14 ./src/chessengine.o
                0x0000000000146102                cu_ClearMoveHistory
 .text.cu_ReduceHistoryByFullMove
                0x0000000000146116       0x9e ./src/chessengine.o
                0x0000000000146116                cu_ReduceHistoryByFullMove
 .text.cu_UndoHalfMove
                0x00000000001461b4       0xd2 ./src/chessengine.o
                0x00000000001461b4                cu_UndoHalfMove
 .text.cu_PushHalfMove
                0x0000000000146286       0x70 ./src/chessengine.o
                0x0000000000146286                cu_PushHalfMove
 .text.cu_add_pos
                0x00000000001462f6       0x90 ./src/chessengine.o
 .text.cu_GetHalfMoveStr
                0x0000000000146386      0x118 ./src/chessengine.o
                0x0000000000146386                cu_GetHalfMoveStr
 .text.cu_Move  0x000000000014649e      0x294 ./src/chessengine.o
                0x000000000014649e                cu_Move
 .text.ce_LoopRecur
                0x0000000000146732       0xec ./src/chessengine.o
                0x0000000000146732                ce_LoopRecur
 .text.ce_LoopDirsSingleMultiStep
                0x000000000014681e       0x9e ./src/chessengine.o
                0x000000000014681e                ce_LoopDirsSingleMultiStep
 .text.ce_LoopRook
                0x00000000001468bc       0x1a ./src/chessengine.o
                0x00000000001468bc                ce_LoopRook
 .text.ce_LoopBishop
                0x00000000001468d6       0x1a ./src/chessengine.o
                0x00000000001468d6                ce_LoopBishop
 .text.ce_LoopQueen
                0x00000000001468f0       0x1a ./src/chessengine.o
                0x00000000001468f0                ce_LoopQueen
 .text.ce_LoopKnight
                0x000000000014690a       0x1a ./src/chessengine.o
                0x000000000014690a                ce_LoopKnight
 .text.cu_IsKingCastling
                0x0000000000146924       0xa0 ./src/chessengine.o
                0x0000000000146924                cu_IsKingCastling
 .text.ce_LoopKing
                0x00000000001469c4       0x98 ./src/chessengine.o
                0x00000000001469c4                ce_LoopKing
 .text.ce_LoopPawnSideCapture
                0x0000000000146a5c       0x84 ./src/chessengine.o
                0x0000000000146a5c                ce_LoopPawnSideCapture
 .text.ce_LoopPawn
                0x0000000000146ae0       0xf2 ./src/chessengine.o
                0x0000000000146ae0                ce_LoopPawn
 .text.ce_FindPieceByStep
                0x0000000000146bd2      0x10a ./src/chessengine.o
                0x0000000000146bd2                ce_FindPieceByStep
 .text.ce_FindPawnPiece
                0x0000000000146cdc       0x84 ./src/chessengine.o
                0x0000000000146cdc                ce_FindPawnPiece
 .text.ce_CalculatePositionWeight
                0x0000000000146d60       0xa4 ./src/chessengine.o
                0x0000000000146d60                ce_CalculatePositionWeight
 .text.ce_GetPositionAttackWeight
                0x0000000000146e04       0x2c ./src/chessengine.o
                0x0000000000146e04                ce_GetPositionAttackWeight
 .text.ce_GetPositionAttackCount
                0x0000000000146e30       0x2c ./src/chessengine.o
                0x0000000000146e30                ce_GetPositionAttackCount
 .text.ce_LoopPieces
                0x0000000000146e5c       0xee ./src/chessengine.o
                0x0000000000146e5c                ce_LoopPieces
 .text.chess_ClearMarks
                0x0000000000146f4a       0x42 ./src/chessengine.o
                0x0000000000146f4a                chess_ClearMarks
 .text.chess_MarkMovable
                0x0000000000146f8c       0x20 ./src/chessengine.o
                0x0000000000146f8c                chess_MarkMovable
 .text.chess_MarkTargetMoves
                0x0000000000146fac       0x50 ./src/chessengine.o
                0x0000000000146fac                chess_MarkTargetMoves
 .text.chess_GetNextMarked
                0x0000000000146ffc       0x72 ./src/chessengine.o
                0x0000000000146ffc                chess_GetNextMarked
 .text.chess_ManualMove
                0x000000000014706e       0xf4 ./src/chessengine.o
                0x000000000014706e                chess_ManualMove
 .text.chess_ComputerMove
                0x0000000000147162       0x3e ./src/chessengine.o
                0x0000000000147162                chess_ComputerMove
 .text.mnu_DrawHome
                0x00000000001471a0       0x9c ./src/chessengine.o
                0x00000000001471a0                mnu_DrawHome
 .text.mnu_DrawEntry
                0x000000000014723c      0x128 ./src/chessengine.o
                0x000000000014723c                mnu_DrawEntry
 .text.mnu_Draw
                0x0000000000147364       0xdc ./src/chessengine.o
                0x0000000000147364                mnu_Draw
 .text.mnu_Step
                0x0000000000147440       0x5c ./src/chessengine.o
                0x0000000000147440                mnu_Step
 .text.chess_DrawFrame
                0x000000000014749c       0xfc ./src/chessengine.o
                0x000000000014749c                chess_DrawFrame
 .text.chess_DrawBoard
                0x0000000000147598      0x504 ./src/chessengine.o
                0x0000000000147598                chess_DrawBoard
 .text.chess_Thinking
                0x0000000000147a9c       0x10 ./src/chessengine.o
                0x0000000000147a9c                chess_Thinking
 .text.chess_Init
                0x0000000000147aac       0xf8 ./src/chessengine.o
                0x0000000000147aac                chess_Init
 .text.chess_Draw
                0x0000000000147ba4      0x168 ./src/chessengine.o
                0x0000000000147ba4                chess_Draw
 .text.chess_Step
                0x0000000000147d0c      0x24e ./src/chessengine.o
                0x0000000000147d0c                chess_Step
 .text.u8g_DrawHBitmap
                0x0000000000147f5a       0x70 ./src/u8g_bitmap.o
                0x0000000000147f5a                u8g_DrawHBitmap
 .text.u8g_DrawBitmap
                0x0000000000147fca       0xa0 ./src/u8g_bitmap.o
                0x0000000000147fca                u8g_DrawBitmap
 .text.u8g_DrawHBitmapP
                0x000000000014806a       0x80 ./src/u8g_bitmap.o
                0x000000000014806a                u8g_DrawHBitmapP
 .text.u8g_DrawBitmapP
                0x00000000001480ea       0xa0 ./src/u8g_bitmap.o
                0x00000000001480ea                u8g_DrawBitmapP
 .text.u8g_DrawHXBM
                0x000000000014818a       0xc2 ./src/u8g_bitmap.o
 .text.u8g_DrawXBM
                0x000000000014824c       0xac ./src/u8g_bitmap.o
                0x000000000014824c                u8g_DrawXBM
 .text.u8g_DrawHXBMP
                0x00000000001482f8       0xda ./src/u8g_bitmap.o
 .text.u8g_DrawXBMP
                0x00000000001483d2       0xac ./src/u8g_bitmap.o
                0x00000000001483d2                u8g_DrawXBMP
 .text.u8g_draw_circle_section
                0x000000000014847e      0x152 ./src/u8g_circle.o
 .text.u8g_draw_circle
                0x00000000001485d0       0xc6 ./src/u8g_circle.o
                0x00000000001485d0                u8g_draw_circle
 .text.u8g_DrawCircle
                0x0000000000148696       0x80 ./src/u8g_circle.o
                0x0000000000148696                u8g_DrawCircle
 .text.u8g_draw_disc_section
                0x0000000000148716      0x15a ./src/u8g_circle.o
 .text.u8g_draw_disc
                0x0000000000148870       0xc6 ./src/u8g_circle.o
                0x0000000000148870                u8g_draw_disc
 .text.u8g_DrawDisc
                0x0000000000148936       0x80 ./src/u8g_circle.o
                0x0000000000148936                u8g_DrawDisc
 .text.u8g_IsBBXIntersection
                0x00000000001489b6      0x10c ./src/u8g_clip.o
                0x00000000001489b6                u8g_IsBBXIntersection
 .text.u8g_InitCom
                0x0000000000148ac2       0x42 ./src/u8g_com_api.o
                0x0000000000148ac2                u8g_InitCom
 .text.u8g_StopCom
                0x0000000000148b04       0x3e ./src/u8g_com_api.o
                0x0000000000148b04                u8g_StopCom
 .text.u8g_SetChipSelect
                0x0000000000148b42       0x44 ./src/u8g_com_api.o
                0x0000000000148b42                u8g_SetChipSelect
 .text.u8g_SetResetLow
                0x0000000000148b86       0x3e ./src/u8g_com_api.o
                0x0000000000148b86                u8g_SetResetLow
 .text.u8g_SetResetHigh
                0x0000000000148bc4       0x3e ./src/u8g_com_api.o
                0x0000000000148bc4                u8g_SetResetHigh
 .text.u8g_SetAddress
                0x0000000000148c02       0x44 ./src/u8g_com_api.o
                0x0000000000148c02                u8g_SetAddress
 .text.u8g_WriteByte
                0x0000000000148c46       0x42 ./src/u8g_com_api.o
                0x0000000000148c46                u8g_WriteByte
 .text.u8g_WriteSequence
                0x0000000000148c88       0x4a ./src/u8g_com_api.o
                0x0000000000148c88                u8g_WriteSequence
 .text.u8g_WriteSequenceP
                0x0000000000148cd2       0x4a ./src/u8g_com_api.o
                0x0000000000148cd2                u8g_WriteSequenceP
 .text.u8g_WriteEscSeqP
                0x0000000000148d1c      0x152 ./src/u8g_com_api.o
                0x0000000000148d1c                u8g_WriteEscSeqP
 .text.u8g_WriteByteBWTo16GrDevice
                0x0000000000148e6e       0xb2 ./src/u8g_com_api_16gr.o
                0x0000000000148e6e                u8g_WriteByteBWTo16GrDevice
 .text.u8g_WriteSequenceBWTo16GrDevice
                0x0000000000148f20       0x66 ./src/u8g_com_api_16gr.o
                0x0000000000148f20                u8g_WriteSequenceBWTo16GrDevice
 .text.u8g_WriteByte4LTo16GrDevice
                0x0000000000148f86       0x88 ./src/u8g_com_api_16gr.o
                0x0000000000148f86                u8g_WriteByte4LTo16GrDevice
 .text.u8g_WriteSequence4LTo16GrDevice
                0x000000000014900e       0x66 ./src/u8g_com_api_16gr.o
                0x000000000014900e                u8g_WriteSequence4LTo16GrDevice
 .text.u8g_com_arduino_ATtiny85_std_hw_spi_fn
                0x0000000000149074       0x2e ./src/u8g_com_arduino_attiny85_hw_spi.o
                0x0000000000149074                u8g_com_arduino_ATtiny85_std_hw_spi_fn
 .text.u8g_com_arduino_fast_parallel_fn
                0x00000000001490a2       0x2e ./src/u8g_com_arduino_fast_parallel.o
                0x00000000001490a2                u8g_com_arduino_fast_parallel_fn
 .text.u8g_com_arduino_hw_spi_fn
                0x00000000001490d0       0x2e ./src/u8g_com_arduino_hw_spi.o
                0x00000000001490d0                u8g_com_arduino_hw_spi_fn
 .text.u8g_com_arduino_hw_usart_spi_fn
                0x00000000001490fe       0x2e ./src/u8g_com_arduino_hw_usart_spi.o
                0x00000000001490fe                u8g_com_arduino_hw_usart_spi_fn
 .text.u8g_com_arduino_no_en_parallel_fn
                0x000000000014912c       0x2e ./src/u8g_com_arduino_no_en_parallel.o
                0x000000000014912c                u8g_com_arduino_no_en_parallel_fn
 .text.u8g_com_arduino_parallel_fn
                0x000000000014915a       0x2e ./src/u8g_com_arduino_parallel.o
                0x000000000014915a                u8g_com_arduino_parallel_fn
 .text.u8g_com_arduino_port_d_wr_fn
                0x0000000000149188       0x2e ./src/u8g_com_arduino_port_d_wr.o
                0x0000000000149188                u8g_com_arduino_port_d_wr_fn
 .text.u8g_com_arduino_ssd_start_sequence
                0x00000000001491b6       0x68 ./src/u8g_com_arduino_ssd_i2c.o
                0x00000000001491b6                u8g_com_arduino_ssd_start_sequence
 .text.u8g_com_arduino_ssd_i2c_fn
                0x000000000014921e      0x172 ./src/u8g_com_arduino_ssd_i2c.o
                0x000000000014921e                u8g_com_arduino_ssd_i2c_fn
 .text.u8g_com_arduino_st7920_custom_fn
                0x0000000000149390       0x2e ./src/u8g_com_arduino_st7920_custom.o
                0x0000000000149390                u8g_com_arduino_st7920_custom_fn
 .text.u8g_com_arduino_st7920_hw_spi_fn
                0x00000000001493be       0x2e ./src/u8g_com_arduino_st7920_hw_spi.o
                0x00000000001493be                u8g_com_arduino_st7920_hw_spi_fn
 .text.u8g_com_arduino_st7920_spi_fn
                0x00000000001493ec       0x2e ./src/u8g_com_arduino_st7920_spi.o
                0x00000000001493ec                u8g_com_arduino_st7920_spi_fn
 .text.u8g_com_arduino_std_sw_spi_fn
                0x000000000014941a       0x2e ./src/u8g_com_arduino_std_sw_spi.o
                0x000000000014941a                u8g_com_arduino_std_sw_spi_fn
 .text.u8g_com_arduino_sw_spi_fn
                0x0000000000149448       0x2e ./src/u8g_com_arduino_sw_spi.o
                0x0000000000149448                u8g_com_arduino_sw_spi_fn
 .text.u8g_com_arduino_t6963_fn
                0x0000000000149476       0x2e ./src/u8g_com_arduino_t6963.o
                0x0000000000149476                u8g_com_arduino_t6963_fn
 .text.u8g_com_arduino_uc_start_sequence
                0x00000000001494a4       0x5a ./src/u8g_com_arduino_uc_i2c.o
                0x00000000001494a4                u8g_com_arduino_uc_start_sequence
 .text.u8g_com_arduino_uc_i2c_fn
                0x00000000001494fe      0x172 ./src/u8g_com_arduino_uc_i2c.o
                0x00000000001494fe                u8g_com_arduino_uc_i2c_fn
 .text.u8g_atmega_spi_out
                0x0000000000149670       0x34 ./src/u8g_com_atmega_hw_spi.o
 .text.u8g_com_atmega_hw_spi_fn
                0x00000000001496a4      0x1cc ./src/u8g_com_atmega_hw_spi.o
                0x00000000001496a4                u8g_com_atmega_hw_spi_fn
 .text.u8g_com_atmega_parallel_write
                0x0000000000149870       0xfe ./src/u8g_com_atmega_parallel.o
 .text.u8g_com_atmega_parallel_fn
                0x000000000014996e      0x218 ./src/u8g_com_atmega_parallel.o
                0x000000000014996e                u8g_com_atmega_parallel_fn
 .text.u8g_atmega_st7920_hw_spi_shift_out
                0x0000000000149b86       0x3e ./src/u8g_com_atmega_st7920_hw_spi.o
 .text.u8g_com_atmega_st7920_write_byte_hw_spi
                0x0000000000149bc4       0x80 ./src/u8g_com_atmega_st7920_hw_spi.o
 .text.u8g_com_atmega_st7920_hw_spi_fn
                0x0000000000149c44      0x1da ./src/u8g_com_atmega_st7920_hw_spi.o
                0x0000000000149c44                u8g_com_atmega_st7920_hw_spi_fn
 .text.u8g_atmega_st7920_sw_spi_shift_out
                0x0000000000149e1e       0x6a ./src/u8g_com_atmega_st7920_spi.o
 .text.u8g_com_atmega_st7920_write_byte
                0x0000000000149e88       0x80 ./src/u8g_com_atmega_st7920_spi.o
 .text.u8g_com_atmega_st7920_sw_spi_fn
                0x0000000000149f08      0x1a8 ./src/u8g_com_atmega_st7920_spi.o
                0x0000000000149f08                u8g_com_atmega_st7920_sw_spi_fn
 .text.u8g_atmega_sw_spi_shift_out
                0x000000000014a0b0       0x6a ./src/u8g_com_atmega_sw_spi.o
 .text.u8g_com_atmega_sw_spi_fn
                0x000000000014a11a      0x188 ./src/u8g_com_atmega_sw_spi.o
                0x000000000014a11a                u8g_com_atmega_sw_spi_fn
 .text.u8g_i2c_clear_error
                0x000000000014a2a2       0x18 ./src/u8g_com_i2c.o
                0x000000000014a2a2                u8g_i2c_clear_error
 .text.u8g_i2c_get_error
                0x000000000014a2ba       0x12 ./src/u8g_com_i2c.o
                0x000000000014a2ba                u8g_i2c_get_error
 .text.u8g_i2c_get_err_pos
                0x000000000014a2cc       0x12 ./src/u8g_com_i2c.o
                0x000000000014a2cc                u8g_i2c_get_err_pos
 .text.u8g_i2c_set_error
                0x000000000014a2de       0x36 ./src/u8g_com_i2c.o
 .text.u8g_i2c_init
                0x000000000014a314       0x4c ./src/u8g_com_i2c.o
                0x000000000014a314                u8g_i2c_init
 .text.u8g_i2c_wait
                0x000000000014a360       0x6c ./src/u8g_com_i2c.o
                0x000000000014a360                u8g_i2c_wait
 .text.u8g_i2c_start
                0x000000000014a3cc       0xa4 ./src/u8g_com_i2c.o
                0x000000000014a3cc                u8g_i2c_start
 .text.u8g_i2c_send_byte
                0x000000000014a470       0x6a ./src/u8g_com_i2c.o
                0x000000000014a470                u8g_i2c_send_byte
 .text.u8g_i2c_stop
                0x000000000014a4da       0x22 ./src/u8g_com_i2c.o
                0x000000000014a4da                u8g_i2c_stop
 .text.u8g_Pin  0x000000000014a4fc       0x2c ./src/u8g_com_io.o
                0x000000000014a4fc                u8g_Pin
 .text.u8g_get_avr_io_ptr
                0x000000000014a528       0x50 ./src/u8g_com_io.o
 .text.u8g_SetPinOutput
                0x000000000014a578       0x4e ./src/u8g_com_io.o
                0x000000000014a578                u8g_SetPinOutput
 .text.u8g_SetPinInput
                0x000000000014a5c6       0x50 ./src/u8g_com_io.o
                0x000000000014a5c6                u8g_SetPinInput
 .text.u8g_SetPinLevel
                0x000000000014a616       0xd2 ./src/u8g_com_io.o
                0x000000000014a616                u8g_SetPinLevel
 .text.u8g_GetPinLevel
                0x000000000014a6e8       0x5e ./src/u8g_com_io.o
                0x000000000014a6e8                u8g_GetPinLevel
 .text.u8g_SetPIOutput
                0x000000000014a746       0x44 ./src/u8g_com_io.o
                0x000000000014a746                u8g_SetPIOutput
 .text.u8g_SetPILevel
                0x000000000014a78a       0x4c ./src/u8g_com_io.o
                0x000000000014a78a                u8g_SetPILevel
 .text.u8g_com_msp430_hw_spi_fn
                0x000000000014a7d6       0x2e ./src/u8g_com_msp430_hw_spi.o
                0x000000000014a7d6                u8g_com_msp430_hw_spi_fn
 .text.u8g_com_null_fn
                0x000000000014a804       0x30 ./src/u8g_com_null.o
                0x000000000014a804                u8g_com_null_fn
 .text.u8g_com_raspberrypi_hw_spi_fn
                0x000000000014a834       0x2e ./src/u8g_com_raspberrypi_hw_spi.o
                0x000000000014a834                u8g_com_raspberrypi_hw_spi_fn
 .text.u8g_sw_spi_shift_out
                0x000000000014a862       0x6c ./src/u8g_com_std_sw_spi.o
 .text.u8g_com_std_sw_spi_fn
                0x000000000014a8ce      0x19a ./src/u8g_com_std_sw_spi.o
                0x000000000014a8ce                u8g_com_std_sw_spi_fn
 .text.u8g_SetCursorFont
                0x000000000014aa68       0x32 ./src/u8g_cursor.o
                0x000000000014aa68                u8g_SetCursorFont
 .text.u8g_SetCursorStyle
                0x000000000014aa9a       0x2a ./src/u8g_cursor.o
                0x000000000014aa9a                u8g_SetCursorStyle
 .text.u8g_SetCursorColor
                0x000000000014aac4       0x38 ./src/u8g_cursor.o
                0x000000000014aac4                u8g_SetCursorColor
 .text.u8g_SetCursorPos
                0x000000000014aafc       0x38 ./src/u8g_cursor.o
                0x000000000014aafc                u8g_SetCursorPos
 .text.u8g_EnableCursor
                0x000000000014ab34       0x28 ./src/u8g_cursor.o
                0x000000000014ab34                u8g_EnableCursor
 .text.u8g_DisableCursor
                0x000000000014ab5c       0x24 ./src/u8g_cursor.o
                0x000000000014ab5c                u8g_DisableCursor
 .text.u8g_DrawCursor
                0x000000000014ab80       0xdc ./src/u8g_cursor.o
                0x000000000014ab80                u8g_DrawCursor
 .text.u8g_Delay
                0x000000000014ac5c       0x48 ./src/u8g_delay.o
                0x000000000014ac5c                u8g_Delay
 .text.u8g_MicroDelay
                0x000000000014aca4       0x10 ./src/u8g_delay.o
                0x000000000014aca4                u8g_MicroDelay
 .text.u8g_10MicroDelay
                0x000000000014acb4       0x2a ./src/u8g_delay.o
                0x000000000014acb4                u8g_10MicroDelay
 .text.u8g_dev_a2_micro_printer_fn
                0x000000000014acde      0x1f4 ./src/u8g_dev_a2_micro_printer.o
                0x000000000014acde                u8g_dev_a2_micro_printer_fn
 .text.u8g_dev_expand4
                0x000000000014aed2       0x88 ./src/u8g_dev_a2_micro_printer.o
 .text.u8g_dev_a2_micro_printer_double_fn
                0x000000000014af5a      0x2d2 ./src/u8g_dev_a2_micro_printer.o
                0x000000000014af5a                u8g_dev_a2_micro_printer_double_fn
 .text.u8g_SetFlipDiscCallback
                0x000000000014b22c       0x30 ./src/u8g_dev_flipdisc_2x7.o
                0x000000000014b22c                u8g_SetFlipDiscCallback
 .text.u8g_dev_flipdisc_2x7_bw_fn
                0x000000000014b25c       0xc0 ./src/u8g_dev_flipdisc_2x7.o
                0x000000000014b25c                u8g_dev_flipdisc_2x7_bw_fn
 .text.u8g_dev_gprof_fn
                0x000000000014b31c      0x122 ./src/u8g_dev_gprof.o
                0x000000000014b31c                u8g_dev_gprof_fn
 .text.ht1632_init
                0x000000000014b43e       0x1a ./src/u8g_dev_ht1632.o
                0x000000000014b43e                ht1632_init
 .text.ht1632_transfer_data
                0x000000000014b458       0x2e ./src/u8g_dev_ht1632.o
                0x000000000014b458                ht1632_transfer_data
 .text.ht1632_set_contrast
                0x000000000014b486       0x20 ./src/u8g_dev_ht1632.o
                0x000000000014b486                ht1632_set_contrast
 .text.u8g_dev_ht1632_24x16_fn
                0x000000000014b4a6       0xc0 ./src/u8g_dev_ht1632.o
                0x000000000014b4a6                u8g_dev_ht1632_24x16_fn
 .text.u8g_dev_ili9325d_get_65K_high_byte
                0x000000000014b566       0x4c ./src/u8g_dev_ili9325d_320x240.o
 .text.u8g_dev_ili9325d_get_65K_low_byte
                0x000000000014b5b2       0x3a ./src/u8g_dev_ili9325d_320x240.o
 .text.u8g_dev_ili9325d_320x240_fn
                0x000000000014b5ec      0x1ca ./src/u8g_dev_ili9325d_320x240.o
                0x000000000014b5ec                u8g_dev_ili9325d_320x240_fn
 .text.u8g_dev_ks0108_128x64_fn
                0x000000000014b7b6      0x1a0 ./src/u8g_dev_ks0108_128x64.o
                0x000000000014b7b6                u8g_dev_ks0108_128x64_fn
 .text.u8g_dev_lc7981_160x80_fn
                0x000000000014b956      0x1f2 ./src/u8g_dev_lc7981_160x80.o
                0x000000000014b956                u8g_dev_lc7981_160x80_fn
 .text.u8g_dev_lc7981_240x128_fn
                0x000000000014bb48      0x1f2 ./src/u8g_dev_lc7981_240x128.o
                0x000000000014bb48                u8g_dev_lc7981_240x128_fn
 .text.u8g_dev_lc7981_240x64_fn
                0x000000000014bd3a      0x1f2 ./src/u8g_dev_lc7981_240x64.o
                0x000000000014bd3a                u8g_dev_lc7981_240x64_fn
 .text.u8g_dev_lc7981_320x64_fn
                0x000000000014bf2c      0x1f2 ./src/u8g_dev_lc7981_320x64.o
                0x000000000014bf2c                u8g_dev_lc7981_320x64_fn
 .text.u8g_dev_ld7032_60x32_fn
                0x000000000014c11e      0x1b8 ./src/u8g_dev_ld7032_60x32.o
                0x000000000014c11e                u8g_dev_ld7032_60x32_fn
 .text.u8g_dev_null
                0x000000000014c2d6       0xc4 ./src/u8g_dev_null.o
                0x000000000014c2d6                u8g_dev_null
 .text.u8g_dev_pcd8544_fn
                0x000000000014c39a      0x1ca ./src/u8g_dev_pcd8544_84x48.o
                0x000000000014c39a                u8g_dev_pcd8544_fn
 .text.u8g_dev_pcf8812_fn
                0x000000000014c564      0x198 ./src/u8g_dev_pcf8812_96x65.o
                0x000000000014c564                u8g_dev_pcf8812_fn
 .text.u8g_dev_sbn1661_122x32_fn
                0x000000000014c6fc      0x1a2 ./src/u8g_dev_sbn1661_122x32.o
                0x000000000014c6fc                u8g_dev_sbn1661_122x32_fn
 .text.u8g_dev_ssd1306_128x32_fn
                0x000000000014c89e      0x134 ./src/u8g_dev_ssd1306_128x32.o
                0x000000000014c89e                u8g_dev_ssd1306_128x32_fn
 .text.u8g_dev_ssd1306_128x32_2x_fn
                0x000000000014c9d2      0x1b8 ./src/u8g_dev_ssd1306_128x32.o
                0x000000000014c9d2                u8g_dev_ssd1306_128x32_2x_fn
 .text.u8g_dev_ssd1306_128x64_fn
                0x000000000014cb8a      0x134 ./src/u8g_dev_ssd1306_128x64.o
                0x000000000014cb8a                u8g_dev_ssd1306_128x64_fn
 .text.u8g_dev_ssd1306_adafruit_128x64_fn
                0x000000000014ccbe      0x134 ./src/u8g_dev_ssd1306_128x64.o
                0x000000000014ccbe                u8g_dev_ssd1306_adafruit_128x64_fn
 .text.u8g_dev_sh1106_128x64_fn
                0x000000000014cdf2      0x134 ./src/u8g_dev_ssd1306_128x64.o
                0x000000000014cdf2                u8g_dev_sh1106_128x64_fn
 .text.u8g_dev_ssd1306_128x64_2x_fn
                0x000000000014cf26      0x1b8 ./src/u8g_dev_ssd1306_128x64.o
                0x000000000014cf26                u8g_dev_ssd1306_128x64_2x_fn
 .text.u8g_dev_sh1106_128x64_2x_fn
                0x000000000014d0de      0x1b8 ./src/u8g_dev_ssd1306_128x64.o
                0x000000000014d0de                u8g_dev_sh1106_128x64_2x_fn
 .text.u8g_dev_ssd1306_64x48_fn
                0x000000000014d296      0x134 ./src/u8g_dev_ssd1306_64x48.o
                0x000000000014d296                u8g_dev_ssd1306_64x48_fn
 .text.u8g_dev_ssd1306_64x48_2x_fn
                0x000000000014d3ca      0x1b8 ./src/u8g_dev_ssd1306_64x48.o
                0x000000000014d3ca                u8g_dev_ssd1306_64x48_2x_fn
 .text.u8g_dev_ssd1309_128x64_fn
                0x000000000014d582      0x196 ./src/u8g_dev_ssd1309_128x64.o
                0x000000000014d582                u8g_dev_ssd1309_128x64_fn
 .text.u8g_dev_ssd1322_1bit_prepare_row
                0x000000000014d718       0xc2 ./src/u8g_dev_ssd1322_nhd31oled_bw.o
 .text.u8g_dev_ssd1322_nhd31oled_bw_fn
                0x000000000014d7da      0x20a ./src/u8g_dev_ssd1322_nhd31oled_bw.o
                0x000000000014d7da                u8g_dev_ssd1322_nhd31oled_bw_fn
 .text.u8g_dev_ssd1322_nhd31oled_2x_bw_fn
                0x000000000014d9e4      0x206 ./src/u8g_dev_ssd1322_nhd31oled_bw.o
                0x000000000014d9e4                u8g_dev_ssd1322_nhd31oled_2x_bw_fn
 .text.u8g_dev_ssd1322_2bit_prepare_row
                0x000000000014dbea       0xc2 ./src/u8g_dev_ssd1322_nhd31oled_gr.o
 .text.u8g_dev_ssd1322_nhd31oled_gr_fn
                0x000000000014dcac      0x208 ./src/u8g_dev_ssd1322_nhd31oled_gr.o
                0x000000000014dcac                u8g_dev_ssd1322_nhd31oled_gr_fn
 .text.u8g_dev_ssd1322_nhd31oled_2x_gr_fn
                0x000000000014deb4      0x204 ./src/u8g_dev_ssd1322_nhd31oled_gr.o
                0x000000000014deb4                u8g_dev_ssd1322_nhd31oled_2x_gr_fn
 .text.u8g_dev_ssd1325_prepare_row
                0x000000000014e0b8       0xa2 ./src/u8g_dev_ssd1325_nhd27oled_bw_new.o
 .text.u8g_dev_ssd1325_nhd27oled_bw_fn
                0x000000000014e15a      0x1b0 ./src/u8g_dev_ssd1325_nhd27oled_bw_new.o
 .text.u8g_dev_ssd1325_nhd27oled_2x_bw_fn
                0x000000000014e30a      0x1b0 ./src/u8g_dev_ssd1325_nhd27oled_bw_new.o
 .text.u8g_dev_ssd1325_gr_prepare_row
                0x000000000014e4ba       0xa2 ./src/u8g_dev_ssd1325_nhd27oled_gr_new.o
 .text.u8g_dev_ssd1325_nhd27oled_gr_fn
                0x000000000014e55c      0x1b0 ./src/u8g_dev_ssd1325_nhd27oled_gr_new.o
 .text.u8g_dev_ssd1325_nhd27oled_2x_gr_fn
                0x000000000014e70c      0x1b0 ./src/u8g_dev_ssd1325_nhd27oled_gr_new.o
 .text.u8g_dev_ssd1327_2bit_prepare_page
                0x000000000014e8bc       0x88 ./src/u8g_dev_ssd1327_96x96_gr.o
 .text.u8g_dev_ssd1327_2bit_2x_prepare_page
                0x000000000014e944       0x9a ./src/u8g_dev_ssd1327_96x96_gr.o
 .text.u8g_dev_ssd1327_2bit_write_4_pixel
                0x000000000014e9de       0xc0 ./src/u8g_dev_ssd1327_96x96_gr.o
 .text.u8g_dev_ssd1327_2bit_write_buffer
                0x000000000014ea9e       0xa0 ./src/u8g_dev_ssd1327_96x96_gr.o
 .text.u8g_dev_ssd1327_2bit_2x_write_buffer
                0x000000000014eb3e       0xba ./src/u8g_dev_ssd1327_96x96_gr.o
 .text.u8g_dev_ssd1327_96x96_gr_fn
                0x000000000014ebf8      0x11a ./src/u8g_dev_ssd1327_96x96_gr.o
                0x000000000014ebf8                u8g_dev_ssd1327_96x96_gr_fn
 .text.u8g_dev_ssd1327_96x96_2x_gr_fn
                0x000000000014ed12      0x140 ./src/u8g_dev_ssd1327_96x96_gr.o
                0x000000000014ed12                u8g_dev_ssd1327_96x96_2x_gr_fn
 .text.u8g_ssd1351_to_stream
                0x000000000014ee52       0xca ./src/u8g_dev_ssd1351_128x128.o
                0x000000000014ee52                u8g_ssd1351_to_stream
 .text.u8g_dev_ssd1351_128x128_332_fn
                0x000000000014ef1c      0x158 ./src/u8g_dev_ssd1351_128x128.o
                0x000000000014ef1c                u8g_dev_ssd1351_128x128_332_fn
 .text.u8g_dev_ssd1351_128x128gh_332_fn
                0x000000000014f074      0x158 ./src/u8g_dev_ssd1351_128x128.o
                0x000000000014f074                u8g_dev_ssd1351_128x128gh_332_fn
 .text.u8g_dev_ssd1351_128x128_idx_fn
                0x000000000014f1cc      0x1ea ./src/u8g_dev_ssd1351_128x128.o
                0x000000000014f1cc                u8g_dev_ssd1351_128x128_idx_fn
 .text.u8g_ssd1351_hicolor_to_stream
                0x000000000014f3b6       0xd2 ./src/u8g_dev_ssd1351_128x128.o
                0x000000000014f3b6                u8g_ssd1351_hicolor_to_stream
 .text.u8g_dev_ssd1351_128x128_hicolor_fn
                0x000000000014f488      0x158 ./src/u8g_dev_ssd1351_128x128.o
                0x000000000014f488                u8g_dev_ssd1351_128x128_hicolor_fn
 .text.u8g_dev_ssd1351_128x128gh_hicolor_fn
                0x000000000014f5e0      0x158 ./src/u8g_dev_ssd1351_128x128.o
                0x000000000014f5e0                u8g_dev_ssd1351_128x128gh_hicolor_fn
 .text.u8g_dev_ssd1353_160x128_332_fn
                0x000000000014f738      0x214 ./src/u8g_dev_ssd1353_160x128.o
                0x000000000014f738                u8g_dev_ssd1353_160x128_332_fn
 .text.u8g_dev_ssd1353_160x128_idx_fn
                0x000000000014f94c      0x1ea ./src/u8g_dev_ssd1353_160x128.o
                0x000000000014f94c                u8g_dev_ssd1353_160x128_idx_fn
 .text.u8g_dev_ssd1353_160x128_hicolor_fn
                0x000000000014fb36      0x226 ./src/u8g_dev_ssd1353_160x128.o
                0x000000000014fb36                u8g_dev_ssd1353_160x128_hicolor_fn
 .text.u8g_dev_st7565_64128n_fn
                0x000000000014fd5c      0x19c ./src/u8g_dev_st7565_64128n.o
                0x000000000014fd5c                u8g_dev_st7565_64128n_fn
 .text.u8g_dev_st7565_64128n_2x_fn
                0x000000000014fef8      0x220 ./src/u8g_dev_st7565_64128n.o
                0x000000000014fef8                u8g_dev_st7565_64128n_2x_fn
 .text.u8g_dev_st7565_dogm128_fn
                0x0000000000150118      0x19c ./src/u8g_dev_st7565_dogm128.o
                0x0000000000150118                u8g_dev_st7565_dogm128_fn
 .text.u8g_dev_st7565_dogm128_2x_fn
                0x00000000001502b4      0x220 ./src/u8g_dev_st7565_dogm128.o
                0x00000000001502b4                u8g_dev_st7565_dogm128_2x_fn
 .text.u8g_dev_st7565_dogm132_fn
                0x00000000001504d4      0x19c ./src/u8g_dev_st7565_dogm132.o
                0x00000000001504d4                u8g_dev_st7565_dogm132_fn
 .text.u8g_dev_st7565_lm6059_fn
                0x0000000000150670      0x19c ./src/u8g_dev_st7565_lm6059.o
                0x0000000000150670                u8g_dev_st7565_lm6059_fn
 .text.u8g_dev_st7565_lm6059_2x_fn
                0x000000000015080c      0x220 ./src/u8g_dev_st7565_lm6059.o
                0x000000000015080c                u8g_dev_st7565_lm6059_2x_fn
 .text.u8g_dev_st7565_lm6063_fn
                0x0000000000150a2c      0x19c ./src/u8g_dev_st7565_lm6063.o
                0x0000000000150a2c                u8g_dev_st7565_lm6063_fn
 .text.u8g_dev_st7565_lm6063_2x_fn
                0x0000000000150bc8      0x220 ./src/u8g_dev_st7565_lm6063.o
                0x0000000000150bc8                u8g_dev_st7565_lm6063_2x_fn
 .text.u8g_dev_st7565_c12832_fn
                0x0000000000150de8      0x19c ./src/u8g_dev_st7565_nhd_c12832.o
                0x0000000000150de8                u8g_dev_st7565_c12832_fn
 .text.u8g_dev_st7565_nhd_c12864_fn
                0x0000000000150f84      0x19c ./src/u8g_dev_st7565_nhd_c12864.o
                0x0000000000150f84                u8g_dev_st7565_nhd_c12864_fn
 .text.u8g_dev_st7565_nhd_c12864_2x_fn
                0x0000000000151120      0x220 ./src/u8g_dev_st7565_nhd_c12864.o
                0x0000000000151120                u8g_dev_st7565_nhd_c12864_2x_fn
 .text.get_byte_1
                0x0000000000151340       0x24 ./src/u8g_dev_st7687_c144mvgd.o
 .text.get_byte_2
                0x0000000000151364       0x50 ./src/u8g_dev_st7687_c144mvgd.o
 .text.u8g_dev_st7687_c144mvgd_fn
                0x00000000001513b4      0x224 ./src/u8g_dev_st7687_c144mvgd.o
                0x00000000001513b4                u8g_dev_st7687_c144mvgd_fn
 .text.u8g_dev_st7920_128x64_fn
                0x00000000001515d8      0x194 ./src/u8g_dev_st7920_128x64.o
                0x00000000001515d8                u8g_dev_st7920_128x64_fn
 .text.u8g_dev_st7920_128x64_4x_fn
                0x000000000015176c      0x194 ./src/u8g_dev_st7920_128x64.o
                0x000000000015176c                u8g_dev_st7920_128x64_4x_fn
 .text.u8g_dev_st7920_192x32_fn
                0x0000000000151900      0x166 ./src/u8g_dev_st7920_192x32.o
                0x0000000000151900                u8g_dev_st7920_192x32_fn
 .text.u8g_dev_st7920_192x32_4x_fn
                0x0000000000151a66      0x166 ./src/u8g_dev_st7920_192x32.o
                0x0000000000151a66                u8g_dev_st7920_192x32_4x_fn
 .text.u8g_dev_st7920_202x32_fn
                0x0000000000151bcc      0x166 ./src/u8g_dev_st7920_202x32.o
                0x0000000000151bcc                u8g_dev_st7920_202x32_fn
 .text.u8g_dev_st7920_202x32_4x_fn
                0x0000000000151d32      0x166 ./src/u8g_dev_st7920_202x32.o
                0x0000000000151d32                u8g_dev_st7920_202x32_4x_fn
 .text.u8g_dev_t6963_128x128_fn
                0x0000000000151e98      0x1a2 ./src/u8g_dev_t6963_128x128.o
                0x0000000000151e98                u8g_dev_t6963_128x128_fn
 .text.u8g_dev_t6963_128x64_fn
                0x000000000015203a      0x1a2 ./src/u8g_dev_t6963_128x64.o
                0x000000000015203a                u8g_dev_t6963_128x64_fn
 .text.u8g_dev_t6963_240x128_fn
                0x00000000001521dc      0x1a2 ./src/u8g_dev_t6963_240x128.o
                0x00000000001521dc                u8g_dev_t6963_240x128_fn
 .text.u8g_dev_t6963_240x64_fn
                0x000000000015237e      0x1a2 ./src/u8g_dev_t6963_240x64.o
                0x000000000015237e                u8g_dev_t6963_240x64_fn
 .text.u8g_dev_tls8204_fn
                0x0000000000152520      0x1a8 ./src/u8g_dev_tls8204_84x48.o
                0x0000000000152520                u8g_dev_tls8204_fn
 .text.u8g_dev_uc1601_c128032_fn
                0x00000000001526c8      0x19c ./src/u8g_dev_uc1601_c128032.o
                0x00000000001526c8                u8g_dev_uc1601_c128032_fn
 .text.u8g_dev_uc1601_c128032_2x_fn
                0x0000000000152864      0x220 ./src/u8g_dev_uc1601_c128032.o
                0x0000000000152864                u8g_dev_uc1601_c128032_2x_fn
 .text.u8g_dev_uc1608_240x128_fn
                0x0000000000152a84      0x16a ./src/u8g_dev_uc1608_240x128.o
                0x0000000000152a84                u8g_dev_uc1608_240x128_fn
 .text.u8g_dev_uc1608_240x128_2x_fn
                0x0000000000152bee      0x1ee ./src/u8g_dev_uc1608_240x128.o
                0x0000000000152bee                u8g_dev_uc1608_240x128_2x_fn
 .text.u8g_dev_uc1608_240x64_fn
                0x0000000000152ddc      0x16a ./src/u8g_dev_uc1608_240x64.o
                0x0000000000152ddc                u8g_dev_uc1608_240x64_fn
 .text.u8g_dev_uc1608_240x64_2x_fn
                0x0000000000152f46      0x1ee ./src/u8g_dev_uc1608_240x64.o
                0x0000000000152f46                u8g_dev_uc1608_240x64_2x_fn
 .text.u8g_dev_1to2
                0x0000000000153134       0x6e ./src/u8g_dev_uc1610_dogxl160.o
 .text.u8g_dev_uc1610_dogxl160_bw_fn
                0x00000000001531a2      0x21c ./src/u8g_dev_uc1610_dogxl160.o
                0x00000000001531a2                u8g_dev_uc1610_dogxl160_bw_fn
 .text.u8g_dev_uc1610_dogxl160_gr_fn
                0x00000000001533be      0x168 ./src/u8g_dev_uc1610_dogxl160.o
                0x00000000001533be                u8g_dev_uc1610_dogxl160_gr_fn
 .text.u8g_dev_uc1610_dogxl160_2x_bw_fn
                0x0000000000153526      0x338 ./src/u8g_dev_uc1610_dogxl160.o
                0x0000000000153526                u8g_dev_uc1610_dogxl160_2x_bw_fn
 .text.u8g_dev_uc1610_dogxl160_2x_gr_fn
                0x000000000015385e      0x1d6 ./src/u8g_dev_uc1610_dogxl160.o
                0x000000000015385e                u8g_dev_uc1610_dogxl160_2x_gr_fn
 .text.setPage  0x0000000000153a34       0x58 ./src/u8g_dev_uc1611_dogm240.o
 .text.u8g_dev_uc1611_dogm240_fn
                0x0000000000153a8c      0x160 ./src/u8g_dev_uc1611_dogm240.o
                0x0000000000153a8c                u8g_dev_uc1611_dogm240_fn
 .text.u8g_dev_dogxl240_set_page
                0x0000000000153bec       0x50 ./src/u8g_dev_uc1611_dogxl240.o
 .text.u8g_dev_uc1611_dogxl240_fn
                0x0000000000153c3c      0x160 ./src/u8g_dev_uc1611_dogxl240.o
 .text.u8g_dev_dogs102_fn
                0x0000000000153d9c      0x16a ./src/u8g_dev_uc1701_dogs102.o
                0x0000000000153d9c                u8g_dev_dogs102_fn
 .text.u8g_dev_uc1701_dogs102_2x_fn
                0x0000000000153f06      0x1ee ./src/u8g_dev_uc1701_dogs102.o
                0x0000000000153f06                u8g_dev_uc1701_dogs102_2x_fn
 .text.u8g_dev_uc1701_mini12864_fn
                0x00000000001540f4      0x16a ./src/u8g_dev_uc1701_mini12864.o
                0x00000000001540f4                u8g_dev_uc1701_mini12864_fn
 .text.u8g_dev_uc1701_mini12864_2x_fn
                0x000000000015425e      0x1ee ./src/u8g_dev_uc1701_mini12864.o
                0x000000000015425e                u8g_dev_uc1701_mini12864_2x_fn
 .text.u8g_draw_ellipse_section
                0x000000000015444c       0xe2 ./src/u8g_ellipse.o
 .text.u8g_draw_ellipse
                0x000000000015452e      0x382 ./src/u8g_ellipse.o
                0x000000000015452e                u8g_draw_ellipse
 .text.u8g_DrawEllipse
                0x00000000001548b0       0x9c ./src/u8g_ellipse.o
                0x00000000001548b0                u8g_DrawEllipse
 .text.u8g_draw_filled_ellipse_section
                0x000000000015494c       0xe6 ./src/u8g_ellipse.o
 .text.u8g_draw_filled_ellipse
                0x0000000000154a32      0x382 ./src/u8g_ellipse.o
                0x0000000000154a32                u8g_draw_filled_ellipse
 .text.u8g_DrawFilledEllipse
                0x0000000000154db4       0x9c ./src/u8g_ellipse.o
                0x0000000000154db4                u8g_DrawFilledEllipse
 .text.u8g_font_get_byte
                0x0000000000154e50       0x4c ./src/u8g_font.o
 .text.u8g_font_get_word
                0x0000000000154e9c       0x98 ./src/u8g_font.o
 .text.u8g_font_GetFormat
                0x0000000000154f34       0x22 ./src/u8g_font.o
 .text.u8g_font_GetFontGlyphStructureSize
                0x0000000000154f56       0x42 ./src/u8g_font.o
 .text.u8g_font_GetBBXWidth
                0x0000000000154f98       0x22 ./src/u8g_font.o
 .text.u8g_font_GetBBXHeight
                0x0000000000154fba       0x22 ./src/u8g_font.o
 .text.u8g_font_GetBBXOffX
                0x0000000000154fdc       0x22 ./src/u8g_font.o
 .text.u8g_font_GetBBXOffY
                0x0000000000154ffe       0x22 ./src/u8g_font.o
 .text.u8g_font_GetCapitalAHeight
                0x0000000000155020       0x22 ./src/u8g_font.o
                0x0000000000155020                u8g_font_GetCapitalAHeight
 .text.u8g_font_GetEncoding65Pos
                0x0000000000155042       0x22 ./src/u8g_font.o
                0x0000000000155042                u8g_font_GetEncoding65Pos
 .text.u8g_font_GetEncoding97Pos
                0x0000000000155064       0x22 ./src/u8g_font.o
                0x0000000000155064                u8g_font_GetEncoding97Pos
 .text.u8g_font_GetFontStartEncoding
                0x0000000000155086       0x22 ./src/u8g_font.o
                0x0000000000155086                u8g_font_GetFontStartEncoding
 .text.u8g_font_GetFontEndEncoding
                0x00000000001550a8       0x22 ./src/u8g_font.o
                0x00000000001550a8                u8g_font_GetFontEndEncoding
 .text.u8g_font_GetLowerGDescent
                0x00000000001550ca       0x22 ./src/u8g_font.o
                0x00000000001550ca                u8g_font_GetLowerGDescent
 .text.u8g_font_GetFontAscent
                0x00000000001550ec       0x22 ./src/u8g_font.o
                0x00000000001550ec                u8g_font_GetFontAscent
 .text.u8g_font_GetFontDescent
                0x000000000015510e       0x22 ./src/u8g_font.o
                0x000000000015510e                u8g_font_GetFontDescent
 .text.u8g_font_GetFontXAscent
                0x0000000000155130       0x22 ./src/u8g_font.o
                0x0000000000155130                u8g_font_GetFontXAscent
 .text.u8g_font_GetFontXDescent
                0x0000000000155152       0x22 ./src/u8g_font.o
                0x0000000000155152                u8g_font_GetFontXDescent
 .text.u8g_font_GetGlyphDataStart
                0x0000000000155174       0x36 ./src/u8g_font.o
 .text.u8g_font_GetSize
                0x00000000001551aa       0xfa ./src/u8g_font.o
                0x00000000001551aa                u8g_font_GetSize
 .text.u8g_GetFontBBXWidth
                0x00000000001552a4       0x26 ./src/u8g_font.o
                0x00000000001552a4                u8g_GetFontBBXWidth
 .text.u8g_GetFontBBXHeight
                0x00000000001552ca       0x26 ./src/u8g_font.o
                0x00000000001552ca                u8g_GetFontBBXHeight
 .text.u8g_GetFontBBXOffX
                0x00000000001552f0       0x26 ./src/u8g_font.o
                0x00000000001552f0                u8g_GetFontBBXOffX
 .text.u8g_GetFontBBXOffY
                0x0000000000155316       0x26 ./src/u8g_font.o
                0x0000000000155316                u8g_GetFontBBXOffY
 .text.u8g_GetFontCapitalAHeight
                0x000000000015533c       0x26 ./src/u8g_font.o
                0x000000000015533c                u8g_GetFontCapitalAHeight
 .text.u8g_CopyGlyphDataToCache
                0x0000000000155362      0x196 ./src/u8g_font.o
 .text.u8g_FillEmptyGlyphCache
                0x00000000001554f8       0x42 ./src/u8g_font.o
 .text.u8g_GetGlyph
                0x000000000015553a      0x1be ./src/u8g_font.o
                0x000000000015553a                u8g_GetGlyph
 .text.u8g_IsGlyph
                0x00000000001556f8       0x32 ./src/u8g_font.o
                0x00000000001556f8                u8g_IsGlyph
 .text.u8g_GetGlyphDeltaX
                0x000000000015572a       0x38 ./src/u8g_font.o
                0x000000000015572a                u8g_GetGlyphDeltaX
 .text.u8g_draw_glyph
                0x0000000000155762      0x15c ./src/u8g_font.o
                0x0000000000155762                u8g_draw_glyph
 .text.u8g_DrawGlyph
                0x00000000001558be       0x50 ./src/u8g_font.o
                0x00000000001558be                u8g_DrawGlyph
 .text.u8g_draw_glyph90
                0x000000000015590e      0x14a ./src/u8g_font.o
                0x000000000015590e                u8g_draw_glyph90
 .text.u8g_DrawGlyph90
                0x0000000000155a58       0x50 ./src/u8g_font.o
                0x0000000000155a58                u8g_DrawGlyph90
 .text.u8g_draw_glyph180
                0x0000000000155aa8      0x158 ./src/u8g_font.o
                0x0000000000155aa8                u8g_draw_glyph180
 .text.u8g_DrawGlyph180
                0x0000000000155c00       0x50 ./src/u8g_font.o
                0x0000000000155c00                u8g_DrawGlyph180
 .text.u8g_draw_glyph270
                0x0000000000155c50      0x168 ./src/u8g_font.o
                0x0000000000155c50                u8g_draw_glyph270
 .text.u8g_DrawGlyph270
                0x0000000000155db8       0x50 ./src/u8g_font.o
                0x0000000000155db8                u8g_DrawGlyph270
 .text.u8g_DrawStr
                0x0000000000155e08       0x8e ./src/u8g_font.o
                0x0000000000155e08                u8g_DrawStr
 .text.u8g_DrawStr90
                0x0000000000155e96       0x8e ./src/u8g_font.o
                0x0000000000155e96                u8g_DrawStr90
 .text.u8g_DrawStr180
                0x0000000000155f24       0x92 ./src/u8g_font.o
                0x0000000000155f24                u8g_DrawStr180
 .text.u8g_DrawStr270
                0x0000000000155fb6       0x92 ./src/u8g_font.o
                0x0000000000155fb6                u8g_DrawStr270
 .text.u8g_DrawStrDir
                0x0000000000156048       0xa6 ./src/u8g_font.o
                0x0000000000156048                u8g_DrawStrDir
 .text.u8g_DrawStrP
                0x00000000001560ee       0x9a ./src/u8g_font.o
                0x00000000001560ee                u8g_DrawStrP
 .text.u8g_DrawStr90P
                0x0000000000156188       0x9a ./src/u8g_font.o
                0x0000000000156188                u8g_DrawStr90P
 .text.u8g_DrawStr180P
                0x0000000000156222       0x9e ./src/u8g_font.o
                0x0000000000156222                u8g_DrawStr180P
 .text.u8g_DrawStr270P
                0x00000000001562c0       0x9e ./src/u8g_font.o
                0x00000000001562c0                u8g_DrawStr270P
 .text.u8g_DrawStrFontBBX
                0x000000000015635e       0x6c ./src/u8g_font.o
                0x000000000015635e                u8g_DrawStrFontBBX
 .text.u8g_DrawGlyphFontBBX
                0x00000000001563ca       0x60 ./src/u8g_font.o
                0x00000000001563ca                u8g_DrawGlyphFontBBX
 .text.u8g_UpdateRefHeight
                0x000000000015642a      0x162 ./src/u8g_font.o
                0x000000000015642a                u8g_UpdateRefHeight
 .text.u8g_SetFontRefHeightText
                0x000000000015658c       0x2a ./src/u8g_font.o
                0x000000000015658c                u8g_SetFontRefHeightText
 .text.u8g_SetFontRefHeightExtendedText
                0x00000000001565b6       0x2c ./src/u8g_font.o
                0x00000000001565b6                u8g_SetFontRefHeightExtendedText
 .text.u8g_SetFontRefHeightAll
                0x00000000001565e2       0x2c ./src/u8g_font.o
                0x00000000001565e2                u8g_SetFontRefHeightAll
 .text.u8g_SetFontLineSpacingFactor
                0x000000000015660e       0x32 ./src/u8g_font.o
                0x000000000015660e                u8g_SetFontLineSpacingFactor
 .text.u8g_font_calc_vref_font
                0x0000000000156640       0x1a ./src/u8g_font.o
                0x0000000000156640                u8g_font_calc_vref_font
 .text.u8g_SetFontPosBaseline
                0x000000000015665a       0x28 ./src/u8g_font.o
                0x000000000015665a                u8g_SetFontPosBaseline
 .text.u8g_font_calc_vref_bottom
                0x0000000000156682       0x20 ./src/u8g_font.o
                0x0000000000156682                u8g_font_calc_vref_bottom
 .text.u8g_SetFontPosBottom
                0x00000000001566a2       0x28 ./src/u8g_font.o
                0x00000000001566a2                u8g_SetFontPosBottom
 .text.u8g_font_calc_vref_top
                0x00000000001566ca       0x2e ./src/u8g_font.o
                0x00000000001566ca                u8g_font_calc_vref_top
 .text.u8g_SetFontPosTop
                0x00000000001566f8       0x28 ./src/u8g_font.o
                0x00000000001566f8                u8g_SetFontPosTop
 .text.u8g_font_calc_vref_center
                0x0000000000156720       0x56 ./src/u8g_font.o
                0x0000000000156720                u8g_font_calc_vref_center
 .text.u8g_SetFontPosCenter
                0x0000000000156776       0x28 ./src/u8g_font.o
                0x0000000000156776                u8g_SetFontPosCenter
 .text.u8g_font_get_char
                0x000000000015679e       0x20 ./src/u8g_font.o
                0x000000000015679e                u8g_font_get_char
 .text.u8g_font_get_charP
                0x00000000001567be       0x36 ./src/u8g_font.o
                0x00000000001567be                u8g_font_get_charP
 .text.u8g_font_calc_str_pixel_width
                0x00000000001567f4       0xe0 ./src/u8g_font.o
                0x00000000001567f4                u8g_font_calc_str_pixel_width
 .text.u8g_GetStrPixelWidth
                0x00000000001568d4       0x34 ./src/u8g_font.o
                0x00000000001568d4                u8g_GetStrPixelWidth
 .text.u8g_GetStrPixelWidthP
                0x0000000000156908       0x34 ./src/u8g_font.o
                0x0000000000156908                u8g_GetStrPixelWidthP
 .text.u8g_GetStrX
                0x000000000015693c       0x3c ./src/u8g_font.o
                0x000000000015693c                u8g_GetStrX
 .text.u8g_GetStrXP
                0x0000000000156978       0x50 ./src/u8g_font.o
                0x0000000000156978                u8g_GetStrXP
 .text.u8g_GetStrWidth
                0x00000000001569c8       0x64 ./src/u8g_font.o
                0x00000000001569c8                u8g_GetStrWidth
 .text.u8g_GetStrWidthP
                0x0000000000156a2c       0x76 ./src/u8g_font.o
                0x0000000000156a2c                u8g_GetStrWidthP
 .text.u8g_font_calc_str_min_box
                0x0000000000156aa2      0x180 ./src/u8g_font.o
 .text.u8g_font_box_min
                0x0000000000156c22       0x40 ./src/u8g_font.o
                0x0000000000156c22                u8g_font_box_min
 .text.u8g_font_box_left_gA
                0x0000000000156c62       0x2e ./src/u8g_font.o
                0x0000000000156c62                u8g_font_box_left_gA
 .text.u8g_font_box_all_gA
                0x0000000000156c90       0x2e ./src/u8g_font.o
                0x0000000000156c90                u8g_font_box_all_gA
 .text.u8g_font_get_str_box_fill_args
                0x0000000000156cbe       0xde ./src/u8g_font.o
 .text.u8g_GetStrMinBox
                0x0000000000156d9c       0xb0 ./src/u8g_font.o
                0x0000000000156d9c                u8g_GetStrMinBox
 .text.u8g_GetStrAMinBox
                0x0000000000156e4c       0xd8 ./src/u8g_font.o
                0x0000000000156e4c                u8g_GetStrAMinBox
 .text.u8g_SetFont
                0x0000000000156f24       0x56 ./src/u8g_font.o
                0x0000000000156f24                u8g_SetFont
 .text.u8g_draw_aa_glyph
                0x0000000000156f7a      0x15a ./src/u8g_font.o
                0x0000000000156f7a                u8g_draw_aa_glyph
 .text.u8g_DrawAAGlyph
                0x00000000001570d4       0x50 ./src/u8g_font.o
                0x00000000001570d4                u8g_DrawAAGlyph
 .text.u8g_DrawAAStr
                0x0000000000157124       0xa4 ./src/u8g_font.o
                0x0000000000157124                u8g_DrawAAStr
 .text.u8g_DrawLine
                0x00000000001571c8      0x14c ./src/u8g_line.o
                0x00000000001571c8                u8g_DrawLine
 .text.u8g_call_dev_fn
                0x0000000000157314       0x4a ./src/u8g_ll_api.o
                0x0000000000157314                u8g_call_dev_fn
 .text.u8g_InitLL
                0x000000000015735e       0x6c ./src/u8g_ll_api.o
                0x000000000015735e                u8g_InitLL
 .text.u8g_FirstPageLL
                0x00000000001573ca       0x7e ./src/u8g_ll_api.o
                0x00000000001573ca                u8g_FirstPageLL
 .text.u8g_NextPageLL
                0x0000000000157448       0x8a ./src/u8g_ll_api.o
                0x0000000000157448                u8g_NextPageLL
 .text.u8g_SetContrastLL
                0x00000000001574d2       0x3c ./src/u8g_ll_api.o
                0x00000000001574d2                u8g_SetContrastLL
 .text.u8g_DrawPixelLL
                0x000000000015750e       0x64 ./src/u8g_ll_api.o
                0x000000000015750e                u8g_DrawPixelLL
 .text.u8g_Draw8PixelLL
                0x0000000000157572       0x84 ./src/u8g_ll_api.o
                0x0000000000157572                u8g_Draw8PixelLL
 .text.u8g_Draw4TPixelLL
                0x00000000001575f6       0x84 ./src/u8g_ll_api.o
                0x00000000001575f6                u8g_Draw4TPixelLL
 .text.u8g_GetWidthLL
                0x000000000015767a       0x3c ./src/u8g_ll_api.o
                0x000000000015767a                u8g_GetWidthLL
 .text.u8g_GetHeightLL
                0x00000000001576b6       0x3c ./src/u8g_ll_api.o
                0x00000000001576b6                u8g_GetHeightLL
 .text.u8g_GetModeLL
                0x00000000001576f2       0x34 ./src/u8g_ll_api.o
                0x00000000001576f2                u8g_GetModeLL
 .text.u8g_UpdateDimension
                0x0000000000157726       0x92 ./src/u8g_ll_api.o
                0x0000000000157726                u8g_UpdateDimension
 .text.u8g_init_data
                0x00000000001577b8       0xca ./src/u8g_ll_api.o
 .text.u8g_Begin
                0x0000000000157882       0x3e ./src/u8g_ll_api.o
                0x0000000000157882                u8g_Begin
 .text.u8g_Init
                0x00000000001578c0       0x40 ./src/u8g_ll_api.o
                0x00000000001578c0                u8g_Init
 .text.u8g_InitComFn
                0x0000000000157900       0x86 ./src/u8g_ll_api.o
                0x0000000000157900                u8g_InitComFn
 .text.u8g_InitSPI
                0x0000000000157986       0x94 ./src/u8g_ll_api.o
                0x0000000000157986                u8g_InitSPI
 .text.u8g_InitHWSPI
                0x0000000000157a1a       0x70 ./src/u8g_ll_api.o
                0x0000000000157a1a                u8g_InitHWSPI
 .text.u8g_InitI2C
                0x0000000000157a8a       0x50 ./src/u8g_ll_api.o
                0x0000000000157a8a                u8g_InitI2C
 .text.u8g_Init8BitFixedPort
                0x0000000000157ada       0x94 ./src/u8g_ll_api.o
                0x0000000000157ada                u8g_Init8BitFixedPort
 .text.u8g_Init8Bit
                0x0000000000157b6e       0xfa ./src/u8g_ll_api.o
                0x0000000000157b6e                u8g_Init8Bit
 .text.u8g_InitRW8Bit
                0x0000000000157c68       0xf0 ./src/u8g_ll_api.o
                0x0000000000157c68                u8g_InitRW8Bit
 .text.u8g_FirstPage
                0x0000000000157d58       0x2e ./src/u8g_ll_api.o
                0x0000000000157d58                u8g_FirstPage
 .text.u8g_NextPage
                0x0000000000157d86       0x4c ./src/u8g_ll_api.o
                0x0000000000157d86                u8g_NextPage
 .text.u8g_SetContrast
                0x0000000000157dd2       0x34 ./src/u8g_ll_api.o
                0x0000000000157dd2                u8g_SetContrast
 .text.u8g_SleepOn
                0x0000000000157e06       0x32 ./src/u8g_ll_api.o
                0x0000000000157e06                u8g_SleepOn
 .text.u8g_SleepOff
                0x0000000000157e38       0x32 ./src/u8g_ll_api.o
                0x0000000000157e38                u8g_SleepOff
 .text.u8g_DrawPixel
                0x0000000000157e6a       0x3a ./src/u8g_ll_api.o
                0x0000000000157e6a                u8g_DrawPixel
 .text.u8g_Draw8Pixel
                0x0000000000157ea4       0x50 ./src/u8g_ll_api.o
                0x0000000000157ea4                u8g_Draw8Pixel
 .text.u8g_Draw4TPixel
                0x0000000000157ef4       0x50 ./src/u8g_ll_api.o
                0x0000000000157ef4                u8g_Draw4TPixel
 .text.u8g_Draw8ColorPixel
                0x0000000000157f44       0x80 ./src/u8g_ll_api.o
                0x0000000000157f44                u8g_Draw8ColorPixel
 .text.u8g_SetColorEntry
                0x0000000000157fc4       0x62 ./src/u8g_ll_api.o
                0x0000000000157fc4                u8g_SetColorEntry
 .text.u8g_SetColorIndex
                0x0000000000158026       0x2a ./src/u8g_ll_api.o
                0x0000000000158026                u8g_SetColorIndex
 .text.u8g_SetHiColor
                0x0000000000158050       0x40 ./src/u8g_ll_api.o
                0x0000000000158050                u8g_SetHiColor
 .text.u8g_SetHiColorByRGB
                0x0000000000158090       0xa4 ./src/u8g_ll_api.o
                0x0000000000158090                u8g_SetHiColorByRGB
 .text.u8g_SetRGB
                0x0000000000158134       0xa8 ./src/u8g_ll_api.o
                0x0000000000158134                u8g_SetRGB
 .text.u8g_GetColorIndex
                0x00000000001581dc       0x20 ./src/u8g_ll_api.o
                0x00000000001581dc                u8g_GetColorIndex
 .text.u8g_GetDefaultForegroundColor
                0x00000000001581fc       0x42 ./src/u8g_ll_api.o
                0x00000000001581fc                u8g_GetDefaultForegroundColor
 .text.u8g_SetDefaultForegroundColor
                0x000000000015823e       0x50 ./src/u8g_ll_api.o
                0x000000000015823e                u8g_SetDefaultForegroundColor
 .text.u8g_GetDefaultBackgroundColor
                0x000000000015828e       0x1a ./src/u8g_ll_api.o
                0x000000000015828e                u8g_GetDefaultBackgroundColor
 .text.u8g_SetDefaultBackgroundColor
                0x00000000001582a8       0x2e ./src/u8g_ll_api.o
                0x00000000001582a8                u8g_SetDefaultBackgroundColor
 .text.u8g_GetDefaultMidColor
                0x00000000001582d6       0x3c ./src/u8g_ll_api.o
                0x00000000001582d6                u8g_GetDefaultMidColor
 .text.u8g_SetDefaultMidColor
                0x0000000000158312       0x2e ./src/u8g_ll_api.o
                0x0000000000158312                u8g_SetDefaultMidColor
 .text.u8g_page_Init
                0x0000000000158340       0x48 ./src/u8g_page.o
                0x0000000000158340                u8g_page_Init
 .text.u8g_page_First
                0x0000000000158388       0x4e ./src/u8g_page.o
                0x0000000000158388                u8g_page_First
 .text.u8g_page_Next
                0x00000000001583d6       0x98 ./src/u8g_page.o
                0x00000000001583d6                u8g_page_Next
 .text.u8g_pb_Clear
                0x000000000015846e       0x74 ./src/u8g_pb.o
                0x000000000015846e                u8g_pb_Clear
 .text.u8g_pb_IsYIntersection
                0x00000000001584e2       0x94 ./src/u8g_pb.o
                0x00000000001584e2                u8g_pb_IsYIntersection
 .text.u8g_pb_IsXIntersection
                0x0000000000158576       0x62 ./src/u8g_pb.o
                0x0000000000158576                u8g_pb_IsXIntersection
 .text.u8g_pb_IsIntersection
                0x00000000001585d8       0x92 ./src/u8g_pb.o
                0x00000000001585d8                u8g_pb_IsIntersection
 .text.u8g_pb_GetPageBox
                0x000000000015866a       0x70 ./src/u8g_pb.o
                0x000000000015866a                u8g_pb_GetPageBox
 .text.u8g_pb_Is8PixelVisible
                0x00000000001586da       0x7c ./src/u8g_pb.o
                0x00000000001586da                u8g_pb_Is8PixelVisible
 .text.u8g_pb_WriteBuffer
                0x0000000000158756       0x4a ./src/u8g_pb.o
                0x0000000000158756                u8g_pb_WriteBuffer
 .text.u8g_pb14v1_Clear
                0x00000000001587a0       0x7a ./src/u8g_pb14v1.o
                0x00000000001587a0                u8g_pb14v1_Clear
 .text.u8g_pb14v1_Init
                0x000000000015881a       0x4a ./src/u8g_pb14v1.o
                0x000000000015881a                u8g_pb14v1_Init
 .text.u8g_pb14v1_set_pixel
                0x0000000000158864       0xd2 ./src/u8g_pb14v1.o
                0x0000000000158864                u8g_pb14v1_set_pixel
 .text.u8g_pb14v1_SetPixel
                0x0000000000158936       0x8c ./src/u8g_pb14v1.o
                0x0000000000158936                u8g_pb14v1_SetPixel
 .text.u8g_pb14v1_Set8PixelStd
                0x00000000001589c2       0xce ./src/u8g_pb14v1.o
                0x00000000001589c2                u8g_pb14v1_Set8PixelStd
 .text.u8g_pb14v1_Set8PixelOpt2
                0x0000000000158a90       0xca ./src/u8g_pb14v1.o
                0x0000000000158a90                u8g_pb14v1_Set8PixelOpt2
 .text.u8g_dev_pb14v1_base_fn
                0x0000000000158b5a      0x186 ./src/u8g_pb14v1.o
                0x0000000000158b5a                u8g_dev_pb14v1_base_fn
 .text.u8g_pb16h1_Clear
                0x0000000000158ce0       0x7a ./src/u8g_pb16h1.o
                0x0000000000158ce0                u8g_pb16h1_Clear
 .text.u8g_pb16h1_Init
                0x0000000000158d5a       0x4a ./src/u8g_pb16h1.o
                0x0000000000158d5a                u8g_pb16h1_Init
 .text.u8g_pb16h1_set_pixel
                0x0000000000158da4      0x116 ./src/u8g_pb16h1.o
                0x0000000000158da4                u8g_pb16h1_set_pixel
 .text.u8g_pb16h1_SetPixel
                0x0000000000158eba       0x8c ./src/u8g_pb16h1.o
                0x0000000000158eba                u8g_pb16h1_SetPixel
 .text.u8g_pb16h1_Set8PixelStd
                0x0000000000158f46       0xce ./src/u8g_pb16h1.o
                0x0000000000158f46                u8g_pb16h1_Set8PixelStd
 .text.u8g_pb16h1_Set8PixelOpt2
                0x0000000000159014       0xca ./src/u8g_pb16h1.o
                0x0000000000159014                u8g_pb16h1_Set8PixelOpt2
 .text.u8g_dev_pb16h1_base_fn
                0x00000000001590de      0x186 ./src/u8g_pb16h1.o
                0x00000000001590de                u8g_dev_pb16h1_base_fn
 .text.u8g_pb16h2_Clear
                0x0000000000159264       0x8c ./src/u8g_pb16h2.o
                0x0000000000159264                u8g_pb16h2_Clear
 .text.u8g_pb16h2_Init
                0x00000000001592f0       0x4a ./src/u8g_pb16h2.o
                0x00000000001592f0                u8g_pb16h2_Init
 .text.u8g_pb16h2_set_pixel
                0x000000000015933a      0x122 ./src/u8g_pb16h2.o
 .text.u8g_pb16h2_SetPixel
                0x000000000015945c       0x98 ./src/u8g_pb16h2.o
                0x000000000015945c                u8g_pb16h2_SetPixel
 .text.u8g_pb16h2_Set8PixelStd
                0x00000000001594f4       0xd0 ./src/u8g_pb16h2.o
                0x00000000001594f4                u8g_pb16h2_Set8PixelStd
 .text.u8g_pb16h2_Or4PixelStd
                0x00000000001595c4       0xf2 ./src/u8g_pb16h2.o
                0x00000000001595c4                u8g_pb16h2_Or4PixelStd
 .text.u8g_dev_pb16h2_base_fn
                0x00000000001596b6      0x1aa ./src/u8g_pb16h2.o
                0x00000000001596b6                u8g_dev_pb16h2_base_fn
 .text.u8g_pb16v1_Clear
                0x0000000000159860       0x7a ./src/u8g_pb16v1.o
                0x0000000000159860                u8g_pb16v1_Clear
 .text.u8g_pb16v1_Init
                0x00000000001598da       0x4a ./src/u8g_pb16v1.o
                0x00000000001598da                u8g_pb16v1_Init
 .text.u8g_pb16v1_set_pixel
                0x0000000000159924       0xd2 ./src/u8g_pb16v1.o
                0x0000000000159924                u8g_pb16v1_set_pixel
 .text.u8g_pb16v1_SetPixel
                0x00000000001599f6       0x8c ./src/u8g_pb16v1.o
                0x00000000001599f6                u8g_pb16v1_SetPixel
 .text.u8g_pb16v1_Set8PixelStd
                0x0000000000159a82       0xce ./src/u8g_pb16v1.o
                0x0000000000159a82                u8g_pb16v1_Set8PixelStd
 .text.u8g_pb16v1_Set8PixelOpt2
                0x0000000000159b50       0xca ./src/u8g_pb16v1.o
                0x0000000000159b50                u8g_pb16v1_Set8PixelOpt2
 .text.u8g_dev_pb16v1_base_fn
                0x0000000000159c1a      0x186 ./src/u8g_pb16v1.o
                0x0000000000159c1a                u8g_dev_pb16v1_base_fn
 .text.u8g_pb16v2_Clear
                0x0000000000159da0       0x8c ./src/u8g_pb16v2.o
                0x0000000000159da0                u8g_pb16v2_Clear
 .text.u8g_pb16v2Init
                0x0000000000159e2c       0x4a ./src/u8g_pb16v2.o
                0x0000000000159e2c                u8g_pb16v2Init
 .text.u8g_pb16v2_set_pixel
                0x0000000000159e76       0xf0 ./src/u8g_pb16v2.o
                0x0000000000159e76                u8g_pb16v2_set_pixel
 .text.u8g_pb16v2_SetPixel
                0x0000000000159f66       0x8c ./src/u8g_pb16v2.o
                0x0000000000159f66                u8g_pb16v2_SetPixel
 .text.u8g_pb16v2_Set8PixelStd
                0x0000000000159ff2       0xce ./src/u8g_pb16v2.o
                0x0000000000159ff2                u8g_pb16v2_Set8PixelStd
 .text.u8g_dev_pb16v2_base_fn
                0x000000000015a0c0      0x186 ./src/u8g_pb16v2.o
                0x000000000015a0c0                u8g_dev_pb16v2_base_fn
 .text.u8g_pb32h1_Clear
                0x000000000015a246       0x7e ./src/u8g_pb32h1.o
                0x000000000015a246                u8g_pb32h1_Clear
 .text.u8g_pb32h1_Init
                0x000000000015a2c4       0x4a ./src/u8g_pb32h1.o
                0x000000000015a2c4                u8g_pb32h1_Init
 .text.u8g_pb32h1_set_pixel
                0x000000000015a30e      0x110 ./src/u8g_pb32h1.o
                0x000000000015a30e                u8g_pb32h1_set_pixel
 .text.u8g_pb32h1_SetPixel
                0x000000000015a41e       0x8c ./src/u8g_pb32h1.o
                0x000000000015a41e                u8g_pb32h1_SetPixel
 .text.u8g_pb32h1_Set8PixelStd
                0x000000000015a4aa       0xce ./src/u8g_pb32h1.o
                0x000000000015a4aa                u8g_pb32h1_Set8PixelStd
 .text.u8g_pb32h1_Set8PixelOpt2
                0x000000000015a578       0xca ./src/u8g_pb32h1.o
                0x000000000015a578                u8g_pb32h1_Set8PixelOpt2
 .text.u8g_dev_pb32h1_base_fn
                0x000000000015a642      0x186 ./src/u8g_pb32h1.o
                0x000000000015a642                u8g_dev_pb32h1_base_fn
 .text.u8g_pb8h1_Init
                0x000000000015a7c8       0x4a ./src/u8g_pb8h1.o
                0x000000000015a7c8                u8g_pb8h1_Init
 .text.u8g_pb8h1_set_pixel
                0x000000000015a812       0xf2 ./src/u8g_pb8h1.o
                0x000000000015a812                u8g_pb8h1_set_pixel
 .text.u8g_pb8h1_SetPixel
                0x000000000015a904       0x8c ./src/u8g_pb8h1.o
                0x000000000015a904                u8g_pb8h1_SetPixel
 .text.u8g_pb8h1_Set8PixelStd
                0x000000000015a990       0xce ./src/u8g_pb8h1.o
                0x000000000015a990                u8g_pb8h1_Set8PixelStd
 .text.u8g_pb8h1_Set8PixelOpt2
                0x000000000015aa5e       0xca ./src/u8g_pb8h1.o
                0x000000000015aa5e                u8g_pb8h1_Set8PixelOpt2
 .text.u8g_dev_pb8h1_base_fn
                0x000000000015ab28      0x186 ./src/u8g_pb8h1.o
                0x000000000015ab28                u8g_dev_pb8h1_base_fn
 .text.u8g_pb8h1f_Init
                0x000000000015acae       0x4a ./src/u8g_pb8h1f.o
                0x000000000015acae                u8g_pb8h1f_Init
 .text.u8g_pb8h1f_set_pixel
                0x000000000015acf8       0xe4 ./src/u8g_pb8h1f.o
                0x000000000015acf8                u8g_pb8h1f_set_pixel
 .text.u8g_pb8h1f_SetPixel
                0x000000000015addc       0x8c ./src/u8g_pb8h1f.o
                0x000000000015addc                u8g_pb8h1f_SetPixel
 .text.u8g_pb8h1f_Set8PixelStd
                0x000000000015ae68       0xce ./src/u8g_pb8h1f.o
                0x000000000015ae68                u8g_pb8h1f_Set8PixelStd
 .text.u8g_pb8h1f_Set8PixelOpt2
                0x000000000015af36       0xca ./src/u8g_pb8h1f.o
                0x000000000015af36                u8g_pb8h1f_Set8PixelOpt2
 .text.u8g_dev_pb8h1f_base_fn
                0x000000000015b000      0x186 ./src/u8g_pb8h1f.o
                0x000000000015b000                u8g_dev_pb8h1f_base_fn
 .text.u8g_pb8h2_Init
                0x000000000015b186       0x4a ./src/u8g_pb8h2.o
                0x000000000015b186                u8g_pb8h2_Init
 .text.u8g_pb8h2_set_pixel
                0x000000000015b1d0      0x116 ./src/u8g_pb8h2.o
 .text.u8g_pb8h2_SetPixel
                0x000000000015b2e6       0x8c ./src/u8g_pb8h2.o
                0x000000000015b2e6                u8g_pb8h2_SetPixel
 .text.u8g_pb8h2_Set8PixelStd
                0x000000000015b372       0xce ./src/u8g_pb8h2.o
                0x000000000015b372                u8g_pb8h2_Set8PixelStd
 .text.u8g_dev_pb8h2_base_fn
                0x000000000015b440      0x186 ./src/u8g_pb8h2.o
                0x000000000015b440                u8g_dev_pb8h2_base_fn
 .text.u8g_pb8h8_Clear
                0x000000000015b5c6       0x96 ./src/u8g_pb8h8.o
                0x000000000015b5c6                u8g_pb8h8_Clear
 .text.u8g_pb8h8_Init
                0x000000000015b65c       0x4a ./src/u8g_pb8h8.o
                0x000000000015b65c                u8g_pb8h8_Init
 .text.u8g_pb8h8_set_pixel
                0x000000000015b6a6       0xaa ./src/u8g_pb8h8.o
 .text.u8g_pb8h8_SetPixel
                0x000000000015b750       0x8c ./src/u8g_pb8h8.o
                0x000000000015b750                u8g_pb8h8_SetPixel
 .text.u8g_pb8h8_Set8Pixel
                0x000000000015b7dc       0xca ./src/u8g_pb8h8.o
                0x000000000015b7dc                u8g_pb8h8_Set8Pixel
 .text.u8g_dev_pb8h8_base_fn
                0x000000000015b8a6      0x186 ./src/u8g_pb8h8.o
                0x000000000015b8a6                u8g_dev_pb8h8_base_fn
 .text.u8g_pb8v1_Init
                0x000000000015ba2c       0x4a ./src/u8g_pb8v1.o
                0x000000000015ba2c                u8g_pb8v1_Init
 .text.u8g_pb8v1_set_pixel
                0x000000000015ba76       0xb4 ./src/u8g_pb8v1.o
                0x000000000015ba76                u8g_pb8v1_set_pixel
 .text.u8g_pb8v1_SetPixel
                0x000000000015bb2a       0x8c ./src/u8g_pb8v1.o
                0x000000000015bb2a                u8g_pb8v1_SetPixel
 .text.u8g_pb8v1_Set8PixelStd
                0x000000000015bbb6       0xce ./src/u8g_pb8v1.o
                0x000000000015bbb6                u8g_pb8v1_Set8PixelStd
 .text.u8g_pb8v1_Set8PixelOpt2
                0x000000000015bc84       0xca ./src/u8g_pb8v1.o
                0x000000000015bc84                u8g_pb8v1_Set8PixelOpt2
 .text.u8g_dev_pb8v1_base_fn
                0x000000000015bd4e      0x186 ./src/u8g_pb8v1.o
                0x000000000015bd4e                u8g_dev_pb8v1_base_fn
 .text.u8g_pb8v2_Init
                0x000000000015bed4       0x4a ./src/u8g_pb8v2.o
                0x000000000015bed4                u8g_pb8v2_Init
 .text.u8g_pb8v2_set_pixel
                0x000000000015bf1e       0xd2 ./src/u8g_pb8v2.o
                0x000000000015bf1e                u8g_pb8v2_set_pixel
 .text.u8g_pb8v2_SetPixel
                0x000000000015bff0       0x8c ./src/u8g_pb8v2.o
                0x000000000015bff0                u8g_pb8v2_SetPixel
 .text.u8g_pb8v2_Set8PixelStd
                0x000000000015c07c       0xce ./src/u8g_pb8v2.o
                0x000000000015c07c                u8g_pb8v2_Set8PixelStd
 .text.u8g_dev_pb8v2_base_fn
                0x000000000015c14a      0x186 ./src/u8g_pb8v2.o
                0x000000000015c14a                u8g_dev_pb8v2_base_fn
 .text.u8g_pbxh16_Clear
                0x000000000015c2d0       0x92 ./src/u8g_pbxh16.o
                0x000000000015c2d0                u8g_pbxh16_Clear
 .text.u8g_pbxh16_Init
                0x000000000015c362       0x4a ./src/u8g_pbxh16.o
                0x000000000015c362                u8g_pbxh16_Init
 .text.u8g_pbxh16_set_pixel
                0x000000000015c3ac       0xd0 ./src/u8g_pbxh16.o
 .text.u8g_pbxh16_SetPixel
                0x000000000015c47c       0x9a ./src/u8g_pbxh16.o
                0x000000000015c47c                u8g_pbxh16_SetPixel
 .text.u8g_pbxh16_Set8Pixel
                0x000000000015c516       0xca ./src/u8g_pbxh16.o
                0x000000000015c516                u8g_pbxh16_Set8Pixel
 .text.u8g_dev_pbxh16_base_fn
                0x000000000015c5e0      0x186 ./src/u8g_pbxh16.o
                0x000000000015c5e0                u8g_dev_pbxh16_base_fn
 .text.u8g_pbxh24_Clear
                0x000000000015c766       0x98 ./src/u8g_pbxh24.o
                0x000000000015c766                u8g_pbxh24_Clear
 .text.u8g_pbxh24_Init
                0x000000000015c7fe       0x4a ./src/u8g_pbxh24.o
                0x000000000015c7fe                u8g_pbxh24_Init
 .text.u8g_pbxh24_set_tpixel
                0x000000000015c848      0x226 ./src/u8g_pbxh24.o
 .text.u8g_pbxh24_SetTPixel
                0x000000000015ca6e       0xb4 ./src/u8g_pbxh24.o
                0x000000000015ca6e                u8g_pbxh24_SetTPixel
 .text.u8g_pbxh24_Set8Pixel
                0x000000000015cb22       0xcc ./src/u8g_pbxh24.o
                0x000000000015cb22                u8g_pbxh24_Set8Pixel
 .text.u8g_pbxh24_Set4TPixel
                0x000000000015cbee       0xd0 ./src/u8g_pbxh24.o
                0x000000000015cbee                u8g_pbxh24_Set4TPixel
 .text.u8g_dev_pbxh24_base_fn
                0x000000000015ccbe      0x1b4 ./src/u8g_pbxh24.o
                0x000000000015ccbe                u8g_dev_pbxh24_base_fn
 .text.pge_Next
                0x000000000015ce72       0xea ./src/u8g_polygon.o
 .text.pge_Init
                0x000000000015cf5c      0x13c ./src/u8g_polygon.o
 .text.pg_inc   0x000000000015d098       0x36 ./src/u8g_polygon.o
 .text.pg_dec   0x000000000015d0ce       0x40 ./src/u8g_polygon.o
 .text.pg_expand_min_y
                0x000000000015d10e       0xca ./src/u8g_polygon.o
 .text.pg_prepare
                0x000000000015d1d8      0x222 ./src/u8g_polygon.o
 .text.pg_hline
                0x000000000015d3fa      0x172 ./src/u8g_polygon.o
 .text.pg_line_init
                0x000000000015d56c      0x122 ./src/u8g_polygon.o
 .text.pg_exec  0x000000000015d68e       0xc2 ./src/u8g_polygon.o
 .text.pg_ClearPolygonXY
                0x000000000015d750       0x22 ./src/u8g_polygon.o
                0x000000000015d750                pg_ClearPolygonXY
 .text.pg_AddPolygonXY
                0x000000000015d772       0xa6 ./src/u8g_polygon.o
                0x000000000015d772                pg_AddPolygonXY
 .text.pg_DrawPolygon
                0x000000000015d818       0x40 ./src/u8g_polygon.o
                0x000000000015d818                pg_DrawPolygon
 .text.u8g_ClearPolygonXY
                0x000000000015d858       0x18 ./src/u8g_polygon.o
                0x000000000015d858                u8g_ClearPolygonXY
 .text.u8g_AddPolygonXY
                0x000000000015d870       0x44 ./src/u8g_polygon.o
                0x000000000015d870                u8g_AddPolygonXY
 .text.u8g_DrawPolygon
                0x000000000015d8b4       0x28 ./src/u8g_polygon.o
                0x000000000015d8b4                u8g_DrawPolygon
 .text.u8g_DrawTriangle
                0x000000000015d8dc       0x9e ./src/u8g_polygon.o
                0x000000000015d8dc                u8g_DrawTriangle
 .text.u8g_draw_hline
                0x000000000015d97a       0x98 ./src/u8g_rect.o
                0x000000000015d97a                u8g_draw_hline
 .text.u8g_draw_vline
                0x000000000015da12       0x98 ./src/u8g_rect.o
                0x000000000015da12                u8g_draw_vline
 .text.u8g_DrawHLine
                0x000000000015daaa       0x52 ./src/u8g_rect.o
                0x000000000015daaa                u8g_DrawHLine
 .text.u8g_DrawVLine
                0x000000000015dafc       0x52 ./src/u8g_rect.o
                0x000000000015dafc                u8g_DrawVLine
 .text.u8g_DrawFrame
                0x000000000015db4e       0xa2 ./src/u8g_rect.o
                0x000000000015db4e                u8g_DrawFrame
 .text.u8g_draw_box
                0x000000000015dbf0       0x52 ./src/u8g_rect.o
                0x000000000015dbf0                u8g_draw_box
 .text.u8g_DrawBox
                0x000000000015dc42       0x58 ./src/u8g_rect.o
                0x000000000015dc42                u8g_DrawBox
 .text.u8g_DrawRFrame
                0x000000000015dc9a      0x18e ./src/u8g_rect.o
                0x000000000015dc9a                u8g_DrawRFrame
 .text.u8g_DrawRBox
                0x000000000015de28      0x17c ./src/u8g_rect.o
                0x000000000015de28                u8g_DrawRBox
 .text.u8g_dev_rot_dummy_fn
                0x000000000015dfa4       0x32 ./src/u8g_rot.o
                0x000000000015dfa4                u8g_dev_rot_dummy_fn
 .text.u8g_UndoRotation
                0x000000000015dfd6       0x46 ./src/u8g_rot.o
                0x000000000015dfd6                u8g_UndoRotation
 .text.u8g_SetRot90
                0x000000000015e01c       0x5e ./src/u8g_rot.o
                0x000000000015e01c                u8g_SetRot90
 .text.u8g_SetRot180
                0x000000000015e07a       0x5e ./src/u8g_rot.o
                0x000000000015e07a                u8g_SetRot180
 .text.u8g_SetRot270
                0x000000000015e0d8       0x5e ./src/u8g_rot.o
                0x000000000015e0d8                u8g_SetRot270
 .text.u8g_dev_rot90_fn
                0x000000000015e136      0x246 ./src/u8g_rot.o
                0x000000000015e136                u8g_dev_rot90_fn
 .text.u8g_dev_rot180_fn
                0x000000000015e37c      0x2e2 ./src/u8g_rot.o
                0x000000000015e37c                u8g_dev_rot180_fn
 .text.u8g_dev_rot270_fn
                0x000000000015e65e      0x2a6 ./src/u8g_rot.o
                0x000000000015e65e                u8g_dev_rot270_fn
 .text.u8g_UndoScale
                0x000000000015e904       0x46 ./src/u8g_scale.o
                0x000000000015e904                u8g_UndoScale
 .text.u8g_SetScale2x2
                0x000000000015e94a       0x5e ./src/u8g_scale.o
                0x000000000015e94a                u8g_SetScale2x2
 .text.u8g_dev_scale_2x2_fn
                0x000000000015e9a8      0x3c2 ./src/u8g_scale.o
                0x000000000015e9a8                u8g_dev_scale_2x2_fn
 .text.u8g_state_dummy_cb
                0x000000000015ed6a       0x16 ./src/u8g_state.o
                0x000000000015ed6a                u8g_state_dummy_cb
 .text.u8g_SetHardwareBackup
                0x000000000015ed80       0x3c ./src/u8g_state.o
                0x000000000015ed80                u8g_SetHardwareBackup
 .text.u8g_backup_spi
                0x000000000015edbc       0x7c ./src/u8g_state.o
                0x000000000015edbc                u8g_backup_spi
 .text.u8g_u16toap
                0x000000000015ee38       0xb4 ./src/u8g_u16toa.o
                0x000000000015ee38                u8g_u16toap
 .text.u8g_u16toa
                0x000000000015eeec       0x44 ./src/u8g_u16toa.o
                0x000000000015eeec                u8g_u16toa
 .text.u8g_u8toap
                0x000000000015ef30       0x88 ./src/u8g_u8toa.o
                0x000000000015ef30                u8g_u8toap
 .text.u8g_u8toa
                0x000000000015efb8       0x3a ./src/u8g_u8toa.o
                0x000000000015efb8                u8g_u8toa
 .text.u8g_dev_vs_fn
                0x000000000015eff2      0x416 ./src/u8g_virtual_screen.o
                0x000000000015eff2                u8g_dev_vs_fn
 .text.u8g_SetVirtualScreenDimension
                0x000000000015f408       0x42 ./src/u8g_virtual_screen.o
                0x000000000015f408                u8g_SetVirtualScreenDimension
 .text.u8g_AddToVirtualScreen
                0x000000000015f44a       0xaa ./src/u8g_virtual_screen.o
                0x000000000015f44a                u8g_AddToVirtualScreen
 .text.u8g_setup
                0x000000000015f4f4       0x1e ./main.o
                0x000000000015f4f4                u8g_setup
 .text.draw     0x000000000015f512       0x2c ./main.o
                0x000000000015f512                draw
 .text.main     0x000000000015f53e       0x2e ./main.o
                0x000000000015f53e                main
 .text.libgcc.mul
                0x000000000015f56c        0x0 /usr/local/Cellar/avr-gcc/7.2.0/lib/avr-gcc/7/gcc/avr/7.2.0/avr5/libgcc.a(_divmodhi4.o)
 .text.libgcc.div
                0x000000000015f56c       0x28 /usr/local/Cellar/avr-gcc/7.2.0/lib/avr-gcc/7/gcc/avr/7.2.0/avr5/libgcc.a(_divmodhi4.o)
                0x000000000015f56c                __divmodhi4
                0x000000000015f56c                _div
 .text.libgcc   0x000000000015f594        0x0 /usr/local/Cellar/avr-gcc/7.2.0/lib/avr-gcc/7/gcc/avr/7.2.0/avr5/libgcc.a(_divmodhi4.o)
 .text.libgcc.prologue
                0x000000000015f594        0x0 /usr/local/Cellar/avr-gcc/7.2.0/lib/avr-gcc/7/gcc/avr/7.2.0/avr5/libgcc.a(_divmodhi4.o)
 .text.libgcc.builtins
                0x000000000015f594        0x0 /usr/local/Cellar/avr-gcc/7.2.0/lib/avr-gcc/7/gcc/avr/7.2.0/avr5/libgcc.a(_divmodhi4.o)
 .text.libgcc.fmul
                0x000000000015f594        0x0 /usr/local/Cellar/avr-gcc/7.2.0/lib/avr-gcc/7/gcc/avr/7.2.0/avr5/libgcc.a(_divmodhi4.o)
 .text.libgcc.fixed
                0x000000000015f594        0x0 /usr/local/Cellar/avr-gcc/7.2.0/lib/avr-gcc/7/gcc/avr/7.2.0/avr5/libgcc.a(_divmodhi4.o)
 .text.libgcc.mul
                0x000000000015f594        0x0 /usr/local/Cellar/avr-gcc/7.2.0/lib/avr-gcc/7/gcc/avr/7.2.0/avr5/libgcc.a(_exit.o)
 .text.libgcc.div
                0x000000000015f594        0x0 /usr/local/Cellar/avr-gcc/7.2.0/lib/avr-gcc/7/gcc/avr/7.2.0/avr5/libgcc.a(_exit.o)
 .text.libgcc   0x000000000015f594        0x0 /usr/local/Cellar/avr-gcc/7.2.0/lib/avr-gcc/7/gcc/avr/7.2.0/avr5/libgcc.a(_exit.o)
 .text.libgcc.prologue
                0x000000000015f594        0x0 /usr/local/Cellar/avr-gcc/7.2.0/lib/avr-gcc/7/gcc/avr/7.2.0/avr5/libgcc.a(_exit.o)
 .text.libgcc.builtins
                0x000000000015f594        0x0 /usr/local/Cellar/avr-gcc/7.2.0/lib/avr-gcc/7/gcc/avr/7.2.0/avr5/libgcc.a(_exit.o)
 .text.libgcc.fmul
                0x000000000015f594        0x0 /usr/local/Cellar/avr-gcc/7.2.0/lib/avr-gcc/7/gcc/avr/7.2.0/avr5/libgcc.a(_exit.o)
 .text.libgcc.fixed
                0x000000000015f594        0x0 /usr/local/Cellar/avr-gcc/7.2.0/lib/avr-gcc/7/gcc/avr/7.2.0/avr5/libgcc.a(_exit.o)
 .text.libgcc.mul
                0x000000000015f594        0x0 /usr/local/Cellar/avr-gcc/7.2.0/lib/avr-gcc/7/gcc/avr/7.2.0/avr5/libgcc.a(_tablejump2.o)
 .text.libgcc.div
                0x000000000015f594        0x0 /usr/local/Cellar/avr-gcc/7.2.0/lib/avr-gcc/7/gcc/avr/7.2.0/avr5/libgcc.a(_tablejump2.o)
 .text.libgcc   0x000000000015f594        0xc /usr/local/Cellar/avr-gcc/7.2.0/lib/avr-gcc/7/gcc/avr/7.2.0/avr5/libgcc.a(_tablejump2.o)
                0x000000000015f594                __tablejump2__
 .text.libgcc.prologue
                0x000000000015f5a0        0x0 /usr/local/Cellar/avr-gcc/7.2.0/lib/avr-gcc/7/gcc/avr/7.2.0/avr5/libgcc.a(_tablejump2.o)
 .text.libgcc.builtins
                0x000000000015f5a0        0x0 /usr/local/Cellar/avr-gcc/7.2.0/lib/avr-gcc/7/gcc/avr/7.2.0/avr5/libgcc.a(_tablejump2.o)
 .text.libgcc.fmul
                0x000000000015f5a0        0x0 /usr/local/Cellar/avr-gcc/7.2.0/lib/avr-gcc/7/gcc/avr/7.2.0/avr5/libgcc.a(_tablejump2.o)
 .text.libgcc.fixed
                0x000000000015f5a0        0x0 /usr/local/Cellar/avr-gcc/7.2.0/lib/avr-gcc/7/gcc/avr/7.2.0/avr5/libgcc.a(_tablejump2.o)
 .text.libgcc.mul
                0x000000000015f5a0        0x0 /usr/local/Cellar/avr-gcc/7.2.0/lib/avr-gcc/7/gcc/avr/7.2.0/avr5/libgcc.a(_copy_data.o)
 .text.libgcc.div
                0x000000000015f5a0        0x0 /usr/local/Cellar/avr-gcc/7.2.0/lib/avr-gcc/7/gcc/avr/7.2.0/avr5/libgcc.a(_copy_data.o)
 .text.libgcc   0x000000000015f5a0        0x0 /usr/local/Cellar/avr-gcc/7.2.0/lib/avr-gcc/7/gcc/avr/7.2.0/avr5/libgcc.a(_copy_data.o)
 .text.libgcc.prologue
                0x000000000015f5a0        0x0 /usr/local/Cellar/avr-gcc/7.2.0/lib/avr-gcc/7/gcc/avr/7.2.0/avr5/libgcc.a(_copy_data.o)
 .text.libgcc.builtins
                0x000000000015f5a0        0x0 /usr/local/Cellar/avr-gcc/7.2.0/lib/avr-gcc/7/gcc/avr/7.2.0/avr5/libgcc.a(_copy_data.o)
 .text.libgcc.fmul
                0x000000000015f5a0        0x0 /usr/local/Cellar/avr-gcc/7.2.0/lib/avr-gcc/7/gcc/avr/7.2.0/avr5/libgcc.a(_copy_data.o)
 .text.libgcc.fixed
                0x000000000015f5a0        0x0 /usr/local/Cellar/avr-gcc/7.2.0/lib/avr-gcc/7/gcc/avr/7.2.0/avr5/libgcc.a(_copy_data.o)
 .text.libgcc.mul
                0x000000000015f5a0        0x0 /usr/local/Cellar/avr-gcc/7.2.0/lib/avr-gcc/7/gcc/avr/7.2.0/avr5/libgcc.a(_clear_bss.o)
 .text.libgcc.div
                0x000000000015f5a0        0x0 /usr/local/Cellar/avr-gcc/7.2.0/lib/avr-gcc/7/gcc/avr/7.2.0/avr5/libgcc.a(_clear_bss.o)
 .text.libgcc   0x000000000015f5a0        0x0 /usr/local/Cellar/avr-gcc/7.2.0/lib/avr-gcc/7/gcc/avr/7.2.0/avr5/libgcc.a(_clear_bss.o)
 .text.libgcc.prologue
                0x000000000015f5a0        0x0 /usr/local/Cellar/avr-gcc/7.2.0/lib/avr-gcc/7/gcc/avr/7.2.0/avr5/libgcc.a(_clear_bss.o)
 .text.libgcc.builtins
                0x000000000015f5a0        0x0 /usr/local/Cellar/avr-gcc/7.2.0/lib/avr-gcc/7/gcc/avr/7.2.0/avr5/libgcc.a(_clear_bss.o)
 .text.libgcc.fmul
                0x000000000015f5a0        0x0 /usr/local/Cellar/avr-gcc/7.2.0/lib/avr-gcc/7/gcc/avr/7.2.0/avr5/libgcc.a(_clear_bss.o)
 .text.libgcc.fixed
                0x000000000015f5a0        0x0 /usr/local/Cellar/avr-gcc/7.2.0/lib/avr-gcc/7/gcc/avr/7.2.0/avr5/libgcc.a(_clear_bss.o)
 .text.libgcc.mul
                0x000000000015f5a0       0x1e /usr/local/Cellar/avr-gcc/7.2.0/lib/avr-gcc/7/gcc/avr/7.2.0/avr5/libgcc.a(_umulhisi3.o)
                0x000000000015f5a0                __umulhisi3
 .text.libgcc.div
                0x000000000015f5be        0x0 /usr/local/Cellar/avr-gcc/7.2.0/lib/avr-gcc/7/gcc/avr/7.2.0/avr5/libgcc.a(_umulhisi3.o)
 .text.libgcc   0x000000000015f5be        0x0 /usr/local/Cellar/avr-gcc/7.2.0/lib/avr-gcc/7/gcc/avr/7.2.0/avr5/libgcc.a(_umulhisi3.o)
 .text.libgcc.prologue
                0x000000000015f5be        0x0 /usr/local/Cellar/avr-gcc/7.2.0/lib/avr-gcc/7/gcc/avr/7.2.0/avr5/libgcc.a(_umulhisi3.o)
 .text.libgcc.builtins
                0x000000000015f5be        0x0 /usr/local/Cellar/avr-gcc/7.2.0/lib/avr-gcc/7/gcc/avr/7.2.0/avr5/libgcc.a(_umulhisi3.o)
 .text.libgcc.fmul
                0x000000000015f5be        0x0 /usr/local/Cellar/avr-gcc/7.2.0/lib/avr-gcc/7/gcc/avr/7.2.0/avr5/libgcc.a(_umulhisi3.o)
 .text.libgcc.fixed
                0x000000000015f5be        0x0 /usr/local/Cellar/avr-gcc/7.2.0/lib/avr-gcc/7/gcc/avr/7.2.0/avr5/libgcc.a(_umulhisi3.o)
 .text.libgcc.mul
                0x000000000015f5be        0x0 /usr/local/Cellar/avr-gcc/7.2.0/lib/avr-gcc/7/gcc/avr/7.2.0/avr5/libgcc.a(_udivmodhi4.o)
 .text.libgcc.div
                0x000000000015f5be       0x28 /usr/local/Cellar/avr-gcc/7.2.0/lib/avr-gcc/7/gcc/avr/7.2.0/avr5/libgcc.a(_udivmodhi4.o)
                0x000000000015f5be                __udivmodhi4
 .text.libgcc   0x000000000015f5e6        0x0 /usr/local/Cellar/avr-gcc/7.2.0/lib/avr-gcc/7/gcc/avr/7.2.0/avr5/libgcc.a(_udivmodhi4.o)
 .text.libgcc.prologue
                0x000000000015f5e6        0x0 /usr/local/Cellar/avr-gcc/7.2.0/lib/avr-gcc/7/gcc/avr/7.2.0/avr5/libgcc.a(_udivmodhi4.o)
 .text.libgcc.builtins
                0x000000000015f5e6        0x0 /usr/local/Cellar/avr-gcc/7.2.0/lib/avr-gcc/7/gcc/avr/7.2.0/avr5/libgcc.a(_udivmodhi4.o)
 .text.libgcc.fmul
                0x000000000015f5e6        0x0 /usr/local/Cellar/avr-gcc/7.2.0/lib/avr-gcc/7/gcc/avr/7.2.0/avr5/libgcc.a(_udivmodhi4.o)
 .text.libgcc.fixed
                0x000000000015f5e6        0x0 /usr/local/Cellar/avr-gcc/7.2.0/lib/avr-gcc/7/gcc/avr/7.2.0/avr5/libgcc.a(_udivmodhi4.o)
 .text.avr-libc
                0x000000000015f5e6       0x12 /usr/local/Cellar/avr-gcc/7.2.0/lib/avr-gcc/7/gcc/avr/7.2.0/../../../../../../avr/lib/avr5/libc.a(memcpy_P.o)
                0x000000000015f5e6                memcpy_P
                0x000000000015f5f8                . = ALIGN (0x2)
 *(.fini9)
 .fini9         0x000000000015f5f8        0x0 /usr/local/Cellar/avr-gcc/7.2.0/lib/avr-gcc/7/gcc/avr/7.2.0/avr5/libgcc.a(_exit.o)
                0x000000000015f5f8                exit
                0x000000000015f5f8                _exit
 *(.fini9)
 *(.fini8)
 *(.fini8)
 *(.fini7)
 *(.fini7)
 *(.fini6)
 *(.fini6)
 *(.fini5)
 *(.fini5)
 *(.fini4)
 *(.fini4)
 *(.fini3)
 *(.fini3)
 *(.fini2)
 *(.fini2)
 *(.fini1)
 *(.fini1)
 *(.fini0)
 .fini0         0x000000000015f5f8        0x4 /usr/local/Cellar/avr-gcc/7.2.0/lib/avr-gcc/7/gcc/avr/7.2.0/avr5/libgcc.a(_exit.o)
 *(.fini0)
 *(.hightext)
 *(.hightext*)
                0x000000000015f5fc                . = ALIGN (0x2)
 *(.jumptables)
 *(.jumptables*)
                0x000000000015f5fc                _etext = .

.data           0x0000000000800060      0x9a8 load address 0x000000000015f5fc
                0x0000000000800060                PROVIDE (__data_start, .)
 *(.data)
 .data          0x0000000000800060        0x0 /usr/local/Cellar/avr-gcc/7.2.0/lib/avr-gcc/7/gcc/avr/7.2.0/../../../../../../avr/lib/avr5/crtatmega16.o
 .data          0x0000000000800060        0x0 ./src/chessengine.o
 .data          0x0000000000800060        0x0 ./src/u8g_bitmap.o
 .data          0x0000000000800060        0x0 ./src/u8g_circle.o
 .data          0x0000000000800060        0x0 ./src/u8g_clip.o
 .data          0x0000000000800060        0x0 ./src/u8g_com_api.o
 .data          0x0000000000800060        0x0 ./src/u8g_com_api_16gr.o
 .data          0x0000000000800060        0x0 ./src/u8g_com_arduino_attiny85_hw_spi.o
 .data          0x0000000000800060        0x0 ./src/u8g_com_arduino_common.o
 .data          0x0000000000800060        0x0 ./src/u8g_com_arduino_fast_parallel.o
 .data          0x0000000000800060        0x0 ./src/u8g_com_arduino_hw_spi.o
 .data          0x0000000000800060        0x0 ./src/u8g_com_arduino_hw_usart_spi.o
 .data          0x0000000000800060        0x0 ./src/u8g_com_arduino_no_en_parallel.o
 .data          0x0000000000800060        0x0 ./src/u8g_com_arduino_parallel.o
 .data          0x0000000000800060        0x0 ./src/u8g_com_arduino_port_d_wr.o
 .data          0x0000000000800060        0x0 ./src/u8g_com_arduino_ssd_i2c.o
 .data          0x0000000000800060        0x0 ./src/u8g_com_arduino_st7920_custom.o
 .data          0x0000000000800060        0x0 ./src/u8g_com_arduino_st7920_hw_spi.o
 .data          0x0000000000800060        0x0 ./src/u8g_com_arduino_st7920_spi.o
 .data          0x0000000000800060        0x0 ./src/u8g_com_arduino_std_sw_spi.o
 .data          0x0000000000800060        0x0 ./src/u8g_com_arduino_sw_spi.o
 .data          0x0000000000800060        0x0 ./src/u8g_com_arduino_t6963.o
 .data          0x0000000000800060        0x0 ./src/u8g_com_arduino_uc_i2c.o
 .data          0x0000000000800060        0x0 ./src/u8g_com_atmega_hw_spi.o
 .data          0x0000000000800060        0x0 ./src/u8g_com_atmega_parallel.o
 .data          0x0000000000800060        0x0 ./src/u8g_com_atmega_st7920_hw_spi.o
 .data          0x0000000000800060        0x0 ./src/u8g_com_atmega_st7920_spi.o
 .data          0x0000000000800060        0x0 ./src/u8g_com_atmega_sw_spi.o
 .data          0x0000000000800060        0x0 ./src/u8g_com_i2c.o
 .data          0x0000000000800060        0x0 ./src/u8g_com_io.o
 .data          0x0000000000800060        0x0 ./src/u8g_com_msp430_hw_spi.o
 .data          0x0000000000800060        0x0 ./src/u8g_com_null.o
 .data          0x0000000000800060        0x0 ./src/u8g_com_raspberrypi_hw_spi.o
 .data          0x0000000000800060        0x0 ./src/u8g_com_raspberrypi_ssd_i2c.o
 .data          0x0000000000800060        0x0 ./src/u8g_com_std_sw_spi.o
 .data          0x0000000000800060        0x0 ./src/u8g_cursor.o
 .data          0x0000000000800060        0x0 ./src/u8g_delay.o
 .data          0x0000000000800060        0x0 ./src/u8g_dev_a2_micro_printer.o
 .data          0x0000000000800060        0x0 ./src/u8g_dev_flipdisc_2x7.o
 .data          0x0000000000800060        0x0 ./src/u8g_dev_gprof.o
 .data          0x0000000000800060        0x0 ./src/u8g_dev_ht1632.o
 .data          0x0000000000800060        0x0 ./src/u8g_dev_ili9325d_320x240.o
 .data          0x0000000000800060        0x0 ./src/u8g_dev_ks0108_128x64.o
 .data          0x0000000000800060        0x0 ./src/u8g_dev_lc7981_160x80.o
 .data          0x0000000000800060        0x0 ./src/u8g_dev_lc7981_240x128.o
 .data          0x0000000000800060        0x0 ./src/u8g_dev_lc7981_240x64.o
 .data          0x0000000000800060        0x0 ./src/u8g_dev_lc7981_320x64.o
 .data          0x0000000000800060        0x0 ./src/u8g_dev_ld7032_60x32.o
 .data          0x0000000000800060        0x0 ./src/u8g_dev_null.o
 .data          0x0000000000800060        0x0 ./src/u8g_dev_pcd8544_84x48.o
 .data          0x0000000000800060        0x0 ./src/u8g_dev_pcf8812_96x65.o
 .data          0x0000000000800060        0x0 ./src/u8g_dev_sbn1661_122x32.o
 .data          0x0000000000800060        0x0 ./src/u8g_dev_ssd1306_128x32.o
 .data          0x0000000000800060        0x0 ./src/u8g_dev_ssd1306_128x64.o
 .data          0x0000000000800060        0x0 ./src/u8g_dev_ssd1306_64x48.o
 .data          0x0000000000800060        0x0 ./src/u8g_dev_ssd1309_128x64.o
 .data          0x0000000000800060        0x0 ./src/u8g_dev_ssd1322_nhd31oled_bw.o
 .data          0x0000000000800060        0x0 ./src/u8g_dev_ssd1322_nhd31oled_gr.o
 .data          0x0000000000800060        0x0 ./src/u8g_dev_ssd1325_nhd27oled_bw.o
 .data          0x0000000000800060        0x0 ./src/u8g_dev_ssd1325_nhd27oled_bw_new.o
 .data          0x0000000000800060        0x0 ./src/u8g_dev_ssd1325_nhd27oled_gr.o
 .data          0x0000000000800060        0x0 ./src/u8g_dev_ssd1325_nhd27oled_gr_new.o
 .data          0x0000000000800060        0x0 ./src/u8g_dev_ssd1327_96x96_gr.o
 .data          0x0000000000800060        0x0 ./src/u8g_dev_ssd1351_128x128.o
 .data          0x0000000000800060        0x0 ./src/u8g_dev_ssd1353_160x128.o
 .data          0x0000000000800060        0x0 ./src/u8g_dev_st7565_64128n.o
 .data          0x0000000000800060        0x0 ./src/u8g_dev_st7565_dogm128.o
 .data          0x0000000000800060        0x0 ./src/u8g_dev_st7565_dogm132.o
 .data          0x0000000000800060        0x0 ./src/u8g_dev_st7565_lm6059.o
 .data          0x0000000000800060        0x0 ./src/u8g_dev_st7565_lm6063.o
 .data          0x0000000000800060        0x0 ./src/u8g_dev_st7565_nhd_c12832.o
 .data          0x0000000000800060        0x0 ./src/u8g_dev_st7565_nhd_c12864.o
 .data          0x0000000000800060        0x0 ./src/u8g_dev_st7687_c144mvgd.o
 .data          0x0000000000800060        0x0 ./src/u8g_dev_st7920_128x64.o
 .data          0x0000000000800060        0x0 ./src/u8g_dev_st7920_192x32.o
 .data          0x0000000000800060        0x0 ./src/u8g_dev_st7920_202x32.o
 .data          0x0000000000800060        0x0 ./src/u8g_dev_t6963_128x128.o
 .data          0x0000000000800060        0x0 ./src/u8g_dev_t6963_128x64.o
 .data          0x0000000000800060        0x0 ./src/u8g_dev_t6963_240x128.o
 .data          0x0000000000800060        0x0 ./src/u8g_dev_t6963_240x64.o
 .data          0x0000000000800060        0x0 ./src/u8g_dev_tls8204_84x48.o
 .data          0x0000000000800060        0x0 ./src/u8g_dev_uc1601_c128032.o
 .data          0x0000000000800060        0x0 ./src/u8g_dev_uc1608_240x128.o
 .data          0x0000000000800060        0x0 ./src/u8g_dev_uc1608_240x64.o
 .data          0x0000000000800060        0x0 ./src/u8g_dev_uc1610_dogxl160.o
 .data          0x0000000000800060        0x0 ./src/u8g_dev_uc1611_dogm240.o
 .data          0x0000000000800060        0x0 ./src/u8g_dev_uc1611_dogxl240.o
 .data          0x0000000000800060        0x0 ./src/u8g_dev_uc1701_dogs102.o
 .data          0x0000000000800060        0x0 ./src/u8g_dev_uc1701_mini12864.o
 .data          0x0000000000800060        0x0 ./src/u8g_ellipse.o
 .data          0x0000000000800060        0x0 ./src/u8g_font.o
 .data          0x0000000000800060        0x0 ./src/u8g_font_data.o
 .data          0x0000000000800060        0x0 ./src/u8g_line.o
 .data          0x0000000000800060        0x0 ./src/u8g_ll_api.o
 .data          0x0000000000800060        0x0 ./src/u8g_page.o
 .data          0x0000000000800060        0x0 ./src/u8g_pb.o
 .data          0x0000000000800060        0x0 ./src/u8g_pb14v1.o
 .data          0x0000000000800060        0x0 ./src/u8g_pb16h1.o
 .data          0x0000000000800060        0x0 ./src/u8g_pb16h2.o
 .data          0x0000000000800060        0x0 ./src/u8g_pb16v1.o
 .data          0x0000000000800060        0x0 ./src/u8g_pb16v2.o
 .data          0x0000000000800060        0x0 ./src/u8g_pb32h1.o
 .data          0x0000000000800060        0x0 ./src/u8g_pb8h1.o
 .data          0x0000000000800060        0x0 ./src/u8g_pb8h1f.o
 .data          0x0000000000800060        0x0 ./src/u8g_pb8h2.o
 .data          0x0000000000800060        0x0 ./src/u8g_pb8h8.o
 .data          0x0000000000800060        0x0 ./src/u8g_pb8v1.o
 .data          0x0000000000800060        0x0 ./src/u8g_pb8v2.o
 .data          0x0000000000800060        0x0 ./src/u8g_pbxh16.o
 .data          0x0000000000800060        0x0 ./src/u8g_pbxh24.o
 .data          0x0000000000800060        0x0 ./src/u8g_polygon.o
 .data          0x0000000000800060        0x0 ./src/u8g_rect.o
 .data          0x0000000000800060        0x0 ./src/u8g_rot.o
 .data          0x0000000000800060        0x0 ./src/u8g_scale.o
 .data          0x0000000000800060        0x0 ./src/u8g_state.o
 .data          0x0000000000800060        0x0 ./src/u8g_u16toa.o
 .data          0x0000000000800060        0x0 ./src/u8g_u8toa.o
 .data          0x0000000000800060        0x0 ./src/u8g_virtual_screen.o
 .data          0x0000000000800060        0x0 ./main.o
 .data          0x0000000000800060        0x0 /usr/local/Cellar/avr-gcc/7.2.0/lib/avr-gcc/7/gcc/avr/7.2.0/avr5/libgcc.a(_divmodhi4.o)
 .data          0x0000000000800060        0x0 /usr/local/Cellar/avr-gcc/7.2.0/lib/avr-gcc/7/gcc/avr/7.2.0/avr5/libgcc.a(_exit.o)
 .data          0x0000000000800060        0x0 /usr/local/Cellar/avr-gcc/7.2.0/lib/avr-gcc/7/gcc/avr/7.2.0/avr5/libgcc.a(_tablejump2.o)
 .data          0x0000000000800060        0x0 /usr/local/Cellar/avr-gcc/7.2.0/lib/avr-gcc/7/gcc/avr/7.2.0/avr5/libgcc.a(_copy_data.o)
 .data          0x0000000000800060        0x0 /usr/local/Cellar/avr-gcc/7.2.0/lib/avr-gcc/7/gcc/avr/7.2.0/avr5/libgcc.a(_clear_bss.o)
 .data          0x0000000000800060        0x0 /usr/local/Cellar/avr-gcc/7.2.0/lib/avr-gcc/7/gcc/avr/7.2.0/avr5/libgcc.a(_umulhisi3.o)
 .data          0x0000000000800060        0x0 /usr/local/Cellar/avr-gcc/7.2.0/lib/avr-gcc/7/gcc/avr/7.2.0/avr5/libgcc.a(_udivmodhi4.o)
 .data          0x0000000000800060        0x0 /usr/local/Cellar/avr-gcc/7.2.0/lib/avr-gcc/7/gcc/avr/7.2.0/../../../../../../avr/lib/avr5/libc.a(memcpy_P.o)
 *(.data*)
 .data.ce_piece_weight
                0x0000000000800060        0x7 ./src/chessengine.o
                0x0000000000800060                ce_piece_weight
 .data.ce_pos_weight
                0x0000000000800067        0x8 ./src/chessengine.o
                0x0000000000800067                ce_pos_weight
 .data.chess_piece_to_char
                0x000000000080006f        0x6 ./src/chessengine.o
                0x000000000080006f                chess_piece_to_char
 .data.mnu_title
                0x0000000000800075        0x2 ./src/chessengine.o
                0x0000000000800075                mnu_title
 .data.mnu_list
                0x0000000000800077        0x8 ./src/chessengine.o
                0x0000000000800077                mnu_list
 .data.mnu_max  0x000000000080007f        0x1 ./src/chessengine.o
                0x000000000080007f                mnu_max
 .data.chess_source_pos
                0x0000000000800080        0x1 ./src/chessengine.o
                0x0000000000800080                chess_source_pos
 .data.chess_target_pos
                0x0000000000800081        0x1 ./src/chessengine.o
                0x0000000000800081                chess_target_pos
 .data.chess_boxsize
                0x0000000000800082        0x1 ./src/chessengine.o
                0x0000000000800082                chess_boxsize
 .data.chess_boxoffset
                0x0000000000800083        0x1 ./src/chessengine.o
                0x0000000000800083                chess_boxoffset
 .data.map.3341
                0x0000000000800084        0x4 ./src/u8g_com_api_16gr.o
 .data.map.3355
                0x0000000000800088       0x10 ./src/u8g_com_api_16gr.o
 .data.u8g_dev_a2_micro_printer_384x240_pb
                0x0000000000800098        0x8 ./src/u8g_dev_a2_micro_printer.o
                0x0000000000800098                u8g_dev_a2_micro_printer_384x240_pb
 .data.u8g_dev_a2_micro_printer_384x240
                0x00000000008000a0        0x6 ./src/u8g_dev_a2_micro_printer.o
                0x00000000008000a0                u8g_dev_a2_micro_printer_384x240
 .data.u8g_dev_a2_micro_printer_192x360_ds_pb
                0x00000000008000a6        0x8 ./src/u8g_dev_a2_micro_printer.o
                0x00000000008000a6                u8g_dev_a2_micro_printer_192x360_ds_pb
 .data.u8g_dev_a2_micro_printer_192x360_ds
                0x00000000008000ae        0x6 ./src/u8g_dev_a2_micro_printer.o
                0x00000000008000ae                u8g_dev_a2_micro_printer_192x360_ds
 .data.u8g_dev_a2_micro_printer_192x720_ds_pb
                0x00000000008000b4        0x8 ./src/u8g_dev_a2_micro_printer.o
                0x00000000008000b4                u8g_dev_a2_micro_printer_192x720_ds_pb
 .data.u8g_dev_a2_micro_printer_192x720_ds
                0x00000000008000bc        0x6 ./src/u8g_dev_a2_micro_printer.o
                0x00000000008000bc                u8g_dev_a2_micro_printer_192x720_ds
 .data.u8g_dev_a2_micro_printer_192x120_ds_pb
                0x00000000008000c2        0x8 ./src/u8g_dev_a2_micro_printer.o
                0x00000000008000c2                u8g_dev_a2_micro_printer_192x120_ds_pb
 .data.u8g_dev_a2_micro_printer_192x120_ds
                0x00000000008000ca        0x6 ./src/u8g_dev_a2_micro_printer.o
                0x00000000008000ca                u8g_dev_a2_micro_printer_192x120_ds
 .data.u8g_dev_flipdisc_2x7_bw_pb
                0x00000000008000d0        0x8 ./src/u8g_dev_flipdisc_2x7.o
                0x00000000008000d0                u8g_dev_flipdisc_2x7_bw_pb
 .data.u8g_dev_flipdisc_2x7
                0x00000000008000d8        0x6 ./src/u8g_dev_flipdisc_2x7.o
                0x00000000008000d8                u8g_dev_flipdisc_2x7
 .data.u8g_pb_dev_gprof
                0x00000000008000de        0x8 ./src/u8g_dev_gprof.o
                0x00000000008000de                u8g_pb_dev_gprof
 .data.u8g_dev_gprof
                0x00000000008000e6        0x6 ./src/u8g_dev_gprof.o
                0x00000000008000e6                u8g_dev_gprof
 .data.u8g_dev_ht1632_24x16_pb
                0x00000000008000ec        0x8 ./src/u8g_dev_ht1632.o
                0x00000000008000ec                u8g_dev_ht1632_24x16_pb
 .data.u8g_dev_ht1632_24x16
                0x00000000008000f4        0x6 ./src/u8g_dev_ht1632.o
                0x00000000008000f4                u8g_dev_ht1632_24x16
 .data.u8g_ili9325d_320x240_8h8_pb
                0x00000000008000fa        0x8 ./src/u8g_dev_ili9325d_320x240.o
                0x00000000008000fa                u8g_ili9325d_320x240_8h8_pb
 .data.u8g_dev_ili9325d_320x240_8bit
                0x0000000000800102        0x6 ./src/u8g_dev_ili9325d_320x240.o
                0x0000000000800102                u8g_dev_ili9325d_320x240_8bit
 .data.u8g_dev_ks0108_128x64_pb
                0x0000000000800108        0x8 ./src/u8g_dev_ks0108_128x64.o
                0x0000000000800108                u8g_dev_ks0108_128x64_pb
 .data.u8g_dev_ks0108_128x64
                0x0000000000800110        0x6 ./src/u8g_dev_ks0108_128x64.o
                0x0000000000800110                u8g_dev_ks0108_128x64
 .data.u8g_dev_ks0108_128x64_fast_pb
                0x0000000000800116        0x8 ./src/u8g_dev_ks0108_128x64.o
                0x0000000000800116                u8g_dev_ks0108_128x64_fast_pb
 .data.u8g_dev_ks0108_128x64_fast
                0x000000000080011e        0x6 ./src/u8g_dev_ks0108_128x64.o
                0x000000000080011e                u8g_dev_ks0108_128x64_fast
 .data.u8g_dev_lc7981_160x80_8bit_pb
                0x0000000000800124        0x8 ./src/u8g_dev_lc7981_160x80.o
                0x0000000000800124                u8g_dev_lc7981_160x80_8bit_pb
 .data.u8g_dev_lc7981_160x80_8bit
                0x000000000080012c        0x6 ./src/u8g_dev_lc7981_160x80.o
                0x000000000080012c                u8g_dev_lc7981_160x80_8bit
 .data.u8g_dev_lc7981_240x128_8bit_pb
                0x0000000000800132        0x8 ./src/u8g_dev_lc7981_240x128.o
                0x0000000000800132                u8g_dev_lc7981_240x128_8bit_pb
 .data.u8g_dev_lc7981_240x128_8bit
                0x000000000080013a        0x6 ./src/u8g_dev_lc7981_240x128.o
                0x000000000080013a                u8g_dev_lc7981_240x128_8bit
 .data.u8g_dev_lc7981_240x64_8bit_pb
                0x0000000000800140        0x8 ./src/u8g_dev_lc7981_240x64.o
                0x0000000000800140                u8g_dev_lc7981_240x64_8bit_pb
 .data.u8g_dev_lc7981_240x64_8bit
                0x0000000000800148        0x6 ./src/u8g_dev_lc7981_240x64.o
                0x0000000000800148                u8g_dev_lc7981_240x64_8bit
 .data.u8g_dev_lc7981_320x64_8bit_pb
                0x000000000080014e        0x8 ./src/u8g_dev_lc7981_320x64.o
                0x000000000080014e                u8g_dev_lc7981_320x64_8bit_pb
 .data.u8g_dev_lc7981_320x64_8bit
                0x0000000000800156        0x6 ./src/u8g_dev_lc7981_320x64.o
                0x0000000000800156                u8g_dev_lc7981_320x64_8bit
 .data.u8g_dev_ld7032_60x32_sw_spi_pb
                0x000000000080015c        0x8 ./src/u8g_dev_ld7032_60x32.o
                0x000000000080015c                u8g_dev_ld7032_60x32_sw_spi_pb
 .data.u8g_dev_ld7032_60x32_sw_spi
                0x0000000000800164        0x6 ./src/u8g_dev_ld7032_60x32.o
                0x0000000000800164                u8g_dev_ld7032_60x32_sw_spi
 .data.u8g_dev_ld7032_60x32_hw_spi_pb
                0x000000000080016a        0x8 ./src/u8g_dev_ld7032_60x32.o
                0x000000000080016a                u8g_dev_ld7032_60x32_hw_spi_pb
 .data.u8g_dev_ld7032_60x32_hw_spi
                0x0000000000800172        0x6 ./src/u8g_dev_ld7032_60x32.o
                0x0000000000800172                u8g_dev_ld7032_60x32_hw_spi
 .data.u8g_dev_ld7032_60x32_parallel_pb
                0x0000000000800178        0x8 ./src/u8g_dev_ld7032_60x32.o
                0x0000000000800178                u8g_dev_ld7032_60x32_parallel_pb
 .data.u8g_dev_ld7032_60x32_parallel
                0x0000000000800180        0x6 ./src/u8g_dev_ld7032_60x32.o
                0x0000000000800180                u8g_dev_ld7032_60x32_parallel
 .data.u8g_dev_ld7032_60x32_hw_usart_spi_pb
                0x0000000000800186        0x8 ./src/u8g_dev_ld7032_60x32.o
                0x0000000000800186                u8g_dev_ld7032_60x32_hw_usart_spi_pb
 .data.u8g_dev_ld7032_60x32_hw_usart_spi
                0x000000000080018e        0x6 ./src/u8g_dev_ld7032_60x32.o
                0x000000000080018e                u8g_dev_ld7032_60x32_hw_usart_spi
 .data.u8g_dev_pcd8544_84x48_sw_spi_pb
                0x0000000000800194        0x8 ./src/u8g_dev_pcd8544_84x48.o
                0x0000000000800194                u8g_dev_pcd8544_84x48_sw_spi_pb
 .data.u8g_dev_pcd8544_84x48_sw_spi
                0x000000000080019c        0x6 ./src/u8g_dev_pcd8544_84x48.o
                0x000000000080019c                u8g_dev_pcd8544_84x48_sw_spi
 .data.u8g_dev_pcd8544_84x48_hw_spi_pb
                0x00000000008001a2        0x8 ./src/u8g_dev_pcd8544_84x48.o
                0x00000000008001a2                u8g_dev_pcd8544_84x48_hw_spi_pb
 .data.u8g_dev_pcd8544_84x48_hw_spi
                0x00000000008001aa        0x6 ./src/u8g_dev_pcd8544_84x48.o
                0x00000000008001aa                u8g_dev_pcd8544_84x48_hw_spi
 .data.u8g_dev_pcf8812_96x65_sw_spi_pb
                0x00000000008001b0        0x8 ./src/u8g_dev_pcf8812_96x65.o
                0x00000000008001b0                u8g_dev_pcf8812_96x65_sw_spi_pb
 .data.u8g_dev_pcf8812_96x65_sw_spi
                0x00000000008001b8        0x6 ./src/u8g_dev_pcf8812_96x65.o
                0x00000000008001b8                u8g_dev_pcf8812_96x65_sw_spi
 .data.u8g_dev_pcf8812_96x65_hw_spi_pb
                0x00000000008001be        0x8 ./src/u8g_dev_pcf8812_96x65.o
                0x00000000008001be                u8g_dev_pcf8812_96x65_hw_spi_pb
 .data.u8g_dev_pcf8812_96x65_hw_spi
                0x00000000008001c6        0x6 ./src/u8g_dev_pcf8812_96x65.o
                0x00000000008001c6                u8g_dev_pcf8812_96x65_hw_spi
 .data.u8g_dev_sbn1661_122x32_pb
                0x00000000008001cc        0x8 ./src/u8g_dev_sbn1661_122x32.o
                0x00000000008001cc                u8g_dev_sbn1661_122x32_pb
 .data.u8g_dev_sbn1661_122x32
                0x00000000008001d4        0x6 ./src/u8g_dev_sbn1661_122x32.o
                0x00000000008001d4                u8g_dev_sbn1661_122x32
 .data.u8g_dev_ssd1306_128x32_sw_spi_pb
                0x00000000008001da        0x8 ./src/u8g_dev_ssd1306_128x32.o
                0x00000000008001da                u8g_dev_ssd1306_128x32_sw_spi_pb
 .data.u8g_dev_ssd1306_128x32_sw_spi
                0x00000000008001e2        0x6 ./src/u8g_dev_ssd1306_128x32.o
                0x00000000008001e2                u8g_dev_ssd1306_128x32_sw_spi
 .data.u8g_dev_ssd1306_128x32_hw_spi_pb
                0x00000000008001e8        0x8 ./src/u8g_dev_ssd1306_128x32.o
                0x00000000008001e8                u8g_dev_ssd1306_128x32_hw_spi_pb
 .data.u8g_dev_ssd1306_128x32_hw_spi
                0x00000000008001f0        0x6 ./src/u8g_dev_ssd1306_128x32.o
                0x00000000008001f0                u8g_dev_ssd1306_128x32_hw_spi
 .data.u8g_dev_ssd1306_128x32_i2c_pb
                0x00000000008001f6        0x8 ./src/u8g_dev_ssd1306_128x32.o
                0x00000000008001f6                u8g_dev_ssd1306_128x32_i2c_pb
 .data.u8g_dev_ssd1306_128x32_i2c
                0x00000000008001fe        0x6 ./src/u8g_dev_ssd1306_128x32.o
                0x00000000008001fe                u8g_dev_ssd1306_128x32_i2c
 .data.u8g_dev_ssd1306_128x32_2x_pb
                0x0000000000800204        0x8 ./src/u8g_dev_ssd1306_128x32.o
                0x0000000000800204                u8g_dev_ssd1306_128x32_2x_pb
 .data.u8g_dev_ssd1306_128x32_2x_sw_spi
                0x000000000080020c        0x6 ./src/u8g_dev_ssd1306_128x32.o
                0x000000000080020c                u8g_dev_ssd1306_128x32_2x_sw_spi
 .data.u8g_dev_ssd1306_128x32_2x_hw_spi
                0x0000000000800212        0x6 ./src/u8g_dev_ssd1306_128x32.o
                0x0000000000800212                u8g_dev_ssd1306_128x32_2x_hw_spi
 .data.u8g_dev_ssd1306_128x32_2x_i2c
                0x0000000000800218        0x6 ./src/u8g_dev_ssd1306_128x32.o
                0x0000000000800218                u8g_dev_ssd1306_128x32_2x_i2c
 .data.u8g_dev_ssd1306_128x64_sw_spi_pb
                0x000000000080021e        0x8 ./src/u8g_dev_ssd1306_128x64.o
                0x000000000080021e                u8g_dev_ssd1306_128x64_sw_spi_pb
 .data.u8g_dev_ssd1306_128x64_sw_spi
                0x0000000000800226        0x6 ./src/u8g_dev_ssd1306_128x64.o
                0x0000000000800226                u8g_dev_ssd1306_128x64_sw_spi
 .data.u8g_dev_ssd1306_128x64_hw_spi_pb
                0x000000000080022c        0x8 ./src/u8g_dev_ssd1306_128x64.o
                0x000000000080022c                u8g_dev_ssd1306_128x64_hw_spi_pb
 .data.u8g_dev_ssd1306_128x64_hw_spi
                0x0000000000800234        0x6 ./src/u8g_dev_ssd1306_128x64.o
                0x0000000000800234                u8g_dev_ssd1306_128x64_hw_spi
 .data.u8g_dev_ssd1306_128x64_i2c_pb
                0x000000000080023a        0x8 ./src/u8g_dev_ssd1306_128x64.o
                0x000000000080023a                u8g_dev_ssd1306_128x64_i2c_pb
 .data.u8g_dev_ssd1306_128x64_i2c
                0x0000000000800242        0x6 ./src/u8g_dev_ssd1306_128x64.o
                0x0000000000800242                u8g_dev_ssd1306_128x64_i2c
 .data.u8g_dev_ssd1306_adafruit_128x64_sw_spi_pb
                0x0000000000800248        0x8 ./src/u8g_dev_ssd1306_128x64.o
                0x0000000000800248                u8g_dev_ssd1306_adafruit_128x64_sw_spi_pb
 .data.u8g_dev_ssd1306_adafruit_128x64_sw_spi
                0x0000000000800250        0x6 ./src/u8g_dev_ssd1306_128x64.o
                0x0000000000800250                u8g_dev_ssd1306_adafruit_128x64_sw_spi
 .data.u8g_dev_ssd1306_adafruit_128x64_hw_spi_pb
                0x0000000000800256        0x8 ./src/u8g_dev_ssd1306_128x64.o
                0x0000000000800256                u8g_dev_ssd1306_adafruit_128x64_hw_spi_pb
 .data.u8g_dev_ssd1306_adafruit_128x64_hw_spi
                0x000000000080025e        0x6 ./src/u8g_dev_ssd1306_128x64.o
                0x000000000080025e                u8g_dev_ssd1306_adafruit_128x64_hw_spi
 .data.u8g_dev_ssd1306_adafruit_128x64_i2c_pb
                0x0000000000800264        0x8 ./src/u8g_dev_ssd1306_128x64.o
                0x0000000000800264                u8g_dev_ssd1306_adafruit_128x64_i2c_pb
 .data.u8g_dev_ssd1306_adafruit_128x64_i2c
                0x000000000080026c        0x6 ./src/u8g_dev_ssd1306_128x64.o
                0x000000000080026c                u8g_dev_ssd1306_adafruit_128x64_i2c
 .data.u8g_dev_ssd1306_128x64_2x_pb
                0x0000000000800272        0x8 ./src/u8g_dev_ssd1306_128x64.o
                0x0000000000800272                u8g_dev_ssd1306_128x64_2x_pb
 .data.u8g_dev_ssd1306_128x64_2x_sw_spi
                0x000000000080027a        0x6 ./src/u8g_dev_ssd1306_128x64.o
                0x000000000080027a                u8g_dev_ssd1306_128x64_2x_sw_spi
 .data.u8g_dev_ssd1306_128x64_2x_hw_spi
                0x0000000000800280        0x6 ./src/u8g_dev_ssd1306_128x64.o
                0x0000000000800280                u8g_dev_ssd1306_128x64_2x_hw_spi
 .data.u8g_dev_ssd1306_128x64_2x_i2c
                0x0000000000800286        0x6 ./src/u8g_dev_ssd1306_128x64.o
                0x0000000000800286                u8g_dev_ssd1306_128x64_2x_i2c
 .data.u8g_dev_sh1106_128x64_sw_spi_pb
                0x000000000080028c        0x8 ./src/u8g_dev_ssd1306_128x64.o
                0x000000000080028c                u8g_dev_sh1106_128x64_sw_spi_pb
 .data.u8g_dev_sh1106_128x64_sw_spi
                0x0000000000800294        0x6 ./src/u8g_dev_ssd1306_128x64.o
                0x0000000000800294                u8g_dev_sh1106_128x64_sw_spi
 .data.u8g_dev_sh1106_128x64_hw_spi_pb
                0x000000000080029a        0x8 ./src/u8g_dev_ssd1306_128x64.o
                0x000000000080029a                u8g_dev_sh1106_128x64_hw_spi_pb
 .data.u8g_dev_sh1106_128x64_hw_spi
                0x00000000008002a2        0x6 ./src/u8g_dev_ssd1306_128x64.o
                0x00000000008002a2                u8g_dev_sh1106_128x64_hw_spi
 .data.u8g_dev_sh1106_128x64_i2c_pb
                0x00000000008002a8        0x8 ./src/u8g_dev_ssd1306_128x64.o
                0x00000000008002a8                u8g_dev_sh1106_128x64_i2c_pb
 .data.u8g_dev_sh1106_128x64_i2c
                0x00000000008002b0        0x6 ./src/u8g_dev_ssd1306_128x64.o
                0x00000000008002b0                u8g_dev_sh1106_128x64_i2c
 .data.u8g_dev_sh1106_128x64_2x_pb
                0x00000000008002b6        0x8 ./src/u8g_dev_ssd1306_128x64.o
                0x00000000008002b6                u8g_dev_sh1106_128x64_2x_pb
 .data.u8g_dev_sh1106_128x64_2x_sw_spi
                0x00000000008002be        0x6 ./src/u8g_dev_ssd1306_128x64.o
                0x00000000008002be                u8g_dev_sh1106_128x64_2x_sw_spi
 .data.u8g_dev_sh1106_128x64_2x_hw_spi
                0x00000000008002c4        0x6 ./src/u8g_dev_ssd1306_128x64.o
                0x00000000008002c4                u8g_dev_sh1106_128x64_2x_hw_spi
 .data.u8g_dev_sh1106_128x64_2x_i2c
                0x00000000008002ca        0x6 ./src/u8g_dev_ssd1306_128x64.o
                0x00000000008002ca                u8g_dev_sh1106_128x64_2x_i2c
 .data.u8g_dev_ssd1306_64x48_sw_spi_pb
                0x00000000008002d0        0x8 ./src/u8g_dev_ssd1306_64x48.o
                0x00000000008002d0                u8g_dev_ssd1306_64x48_sw_spi_pb
 .data.u8g_dev_ssd1306_64x48_sw_spi
                0x00000000008002d8        0x6 ./src/u8g_dev_ssd1306_64x48.o
                0x00000000008002d8                u8g_dev_ssd1306_64x48_sw_spi
 .data.u8g_dev_ssd1306_64x48_hw_spi_pb
                0x00000000008002de        0x8 ./src/u8g_dev_ssd1306_64x48.o
                0x00000000008002de                u8g_dev_ssd1306_64x48_hw_spi_pb
 .data.u8g_dev_ssd1306_64x48_hw_spi
                0x00000000008002e6        0x6 ./src/u8g_dev_ssd1306_64x48.o
                0x00000000008002e6                u8g_dev_ssd1306_64x48_hw_spi
 .data.u8g_dev_ssd1306_64x48_i2c_pb
                0x00000000008002ec        0x8 ./src/u8g_dev_ssd1306_64x48.o
                0x00000000008002ec                u8g_dev_ssd1306_64x48_i2c_pb
 .data.u8g_dev_ssd1306_64x48_i2c
                0x00000000008002f4        0x6 ./src/u8g_dev_ssd1306_64x48.o
                0x00000000008002f4                u8g_dev_ssd1306_64x48_i2c
 .data.u8g_dev_ssd1306_64x48_2x_pb
                0x00000000008002fa        0x8 ./src/u8g_dev_ssd1306_64x48.o
                0x00000000008002fa                u8g_dev_ssd1306_64x48_2x_pb
 .data.u8g_dev_ssd1306_64x48_2x_sw_spi
                0x0000000000800302        0x6 ./src/u8g_dev_ssd1306_64x48.o
                0x0000000000800302                u8g_dev_ssd1306_64x48_2x_sw_spi
 .data.u8g_dev_ssd1306_64x48_2x_hw_spi
                0x0000000000800308        0x6 ./src/u8g_dev_ssd1306_64x48.o
                0x0000000000800308                u8g_dev_ssd1306_64x48_2x_hw_spi
 .data.u8g_dev_ssd1306_64x48_2x_i2c
                0x000000000080030e        0x6 ./src/u8g_dev_ssd1306_64x48.o
                0x000000000080030e                u8g_dev_ssd1306_64x48_2x_i2c
 .data.u8g_dev_ssd1309_128x64_hw_spi_pb
                0x0000000000800314        0x8 ./src/u8g_dev_ssd1309_128x64.o
                0x0000000000800314                u8g_dev_ssd1309_128x64_hw_spi_pb
 .data.u8g_dev_ssd1309_128x64_hw_spi
                0x000000000080031c        0x6 ./src/u8g_dev_ssd1309_128x64.o
                0x000000000080031c                u8g_dev_ssd1309_128x64_hw_spi
 .data.u8g_dev_ssd1309_128x64_sw_spi_pb
                0x0000000000800322        0x8 ./src/u8g_dev_ssd1309_128x64.o
                0x0000000000800322                u8g_dev_ssd1309_128x64_sw_spi_pb
 .data.u8g_dev_ssd1309_128x64_sw_spi
                0x000000000080032a        0x6 ./src/u8g_dev_ssd1309_128x64.o
                0x000000000080032a                u8g_dev_ssd1309_128x64_sw_spi
 .data.u8g_dev_ssd1309_128x64_i2c_pb
                0x0000000000800330        0x8 ./src/u8g_dev_ssd1309_128x64.o
                0x0000000000800330                u8g_dev_ssd1309_128x64_i2c_pb
 .data.u8g_dev_ssd1309_128x64_i2c
                0x0000000000800338        0x6 ./src/u8g_dev_ssd1309_128x64.o
                0x0000000000800338                u8g_dev_ssd1309_128x64_i2c
 .data.u8g_dev_ssd1322_nhd31oled_bw_sw_spi_pb
                0x000000000080033e        0x8 ./src/u8g_dev_ssd1322_nhd31oled_bw.o
                0x000000000080033e                u8g_dev_ssd1322_nhd31oled_bw_sw_spi_pb
 .data.u8g_dev_ssd1322_nhd31oled_bw_sw_spi
                0x0000000000800346        0x6 ./src/u8g_dev_ssd1322_nhd31oled_bw.o
                0x0000000000800346                u8g_dev_ssd1322_nhd31oled_bw_sw_spi
 .data.u8g_dev_ssd1322_nhd31oled_bw_hw_spi_pb
                0x000000000080034c        0x8 ./src/u8g_dev_ssd1322_nhd31oled_bw.o
                0x000000000080034c                u8g_dev_ssd1322_nhd31oled_bw_hw_spi_pb
 .data.u8g_dev_ssd1322_nhd31oled_bw_hw_spi
                0x0000000000800354        0x6 ./src/u8g_dev_ssd1322_nhd31oled_bw.o
                0x0000000000800354                u8g_dev_ssd1322_nhd31oled_bw_hw_spi
 .data.u8g_dev_ssd1322_nhd31oled_bw_parallel_pb
                0x000000000080035a        0x8 ./src/u8g_dev_ssd1322_nhd31oled_bw.o
                0x000000000080035a                u8g_dev_ssd1322_nhd31oled_bw_parallel_pb
 .data.u8g_dev_ssd1322_nhd31oled_bw_parallel
                0x0000000000800362        0x6 ./src/u8g_dev_ssd1322_nhd31oled_bw.o
                0x0000000000800362                u8g_dev_ssd1322_nhd31oled_bw_parallel
 .data.u8g_dev_ssd1322_nhd31oled_2x_bw_pb
                0x0000000000800368        0x8 ./src/u8g_dev_ssd1322_nhd31oled_bw.o
                0x0000000000800368                u8g_dev_ssd1322_nhd31oled_2x_bw_pb
 .data.u8g_dev_ssd1322_nhd31oled_2x_bw_sw_spi
                0x0000000000800370        0x6 ./src/u8g_dev_ssd1322_nhd31oled_bw.o
                0x0000000000800370                u8g_dev_ssd1322_nhd31oled_2x_bw_sw_spi
 .data.u8g_dev_ssd1322_nhd31oled_2x_bw_hw_spi
                0x0000000000800376        0x6 ./src/u8g_dev_ssd1322_nhd31oled_bw.o
                0x0000000000800376                u8g_dev_ssd1322_nhd31oled_2x_bw_hw_spi
 .data.u8g_dev_ssd1322_nhd31oled_gr_sw_spi_pb
                0x000000000080037c        0x8 ./src/u8g_dev_ssd1322_nhd31oled_gr.o
                0x000000000080037c                u8g_dev_ssd1322_nhd31oled_gr_sw_spi_pb
 .data.u8g_dev_ssd1322_nhd31oled_gr_sw_spi
                0x0000000000800384        0x6 ./src/u8g_dev_ssd1322_nhd31oled_gr.o
                0x0000000000800384                u8g_dev_ssd1322_nhd31oled_gr_sw_spi
 .data.u8g_dev_ssd1322_nhd31oled_gr_hw_spi_pb
                0x000000000080038a        0x8 ./src/u8g_dev_ssd1322_nhd31oled_gr.o
                0x000000000080038a                u8g_dev_ssd1322_nhd31oled_gr_hw_spi_pb
 .data.u8g_dev_ssd1322_nhd31oled_gr_hw_spi
                0x0000000000800392        0x6 ./src/u8g_dev_ssd1322_nhd31oled_gr.o
                0x0000000000800392                u8g_dev_ssd1322_nhd31oled_gr_hw_spi
 .data.u8g_dev_ssd1322_nhd31oled_gr_parallel_pb
                0x0000000000800398        0x8 ./src/u8g_dev_ssd1322_nhd31oled_gr.o
                0x0000000000800398                u8g_dev_ssd1322_nhd31oled_gr_parallel_pb
 .data.u8g_dev_ssd1322_nhd31oled_gr_parallel
                0x00000000008003a0        0x6 ./src/u8g_dev_ssd1322_nhd31oled_gr.o
                0x00000000008003a0                u8g_dev_ssd1322_nhd31oled_gr_parallel
 .data.u8g_dev_ssd1322_nhd31oled_2x_gr_pb
                0x00000000008003a6        0x8 ./src/u8g_dev_ssd1322_nhd31oled_gr.o
                0x00000000008003a6                u8g_dev_ssd1322_nhd31oled_2x_gr_pb
 .data.u8g_dev_ssd1322_nhd31oled_2x_gr_sw_spi
                0x00000000008003ae        0x6 ./src/u8g_dev_ssd1322_nhd31oled_gr.o
                0x00000000008003ae                u8g_dev_ssd1322_nhd31oled_2x_gr_sw_spi
 .data.u8g_dev_ssd1322_nhd31oled_2x_gr_hw_spi
                0x00000000008003b4        0x6 ./src/u8g_dev_ssd1322_nhd31oled_gr.o
                0x00000000008003b4                u8g_dev_ssd1322_nhd31oled_2x_gr_hw_spi
 .data.u8g_dev_ssd1325_nhd27oled_bw_sw_spi_pb
                0x00000000008003ba        0x8 ./src/u8g_dev_ssd1325_nhd27oled_bw_new.o
                0x00000000008003ba                u8g_dev_ssd1325_nhd27oled_bw_sw_spi_pb
 .data.u8g_dev_ssd1325_nhd27oled_bw_sw_spi
                0x00000000008003c2        0x6 ./src/u8g_dev_ssd1325_nhd27oled_bw_new.o
                0x00000000008003c2                u8g_dev_ssd1325_nhd27oled_bw_sw_spi
 .data.u8g_dev_ssd1325_nhd27oled_bw_hw_spi_pb
                0x00000000008003c8        0x8 ./src/u8g_dev_ssd1325_nhd27oled_bw_new.o
                0x00000000008003c8                u8g_dev_ssd1325_nhd27oled_bw_hw_spi_pb
 .data.u8g_dev_ssd1325_nhd27oled_bw_hw_spi
                0x00000000008003d0        0x6 ./src/u8g_dev_ssd1325_nhd27oled_bw_new.o
                0x00000000008003d0                u8g_dev_ssd1325_nhd27oled_bw_hw_spi
 .data.u8g_dev_ssd1325_nhd27oled_bw_parallel_pb
                0x00000000008003d6        0x8 ./src/u8g_dev_ssd1325_nhd27oled_bw_new.o
                0x00000000008003d6                u8g_dev_ssd1325_nhd27oled_bw_parallel_pb
 .data.u8g_dev_ssd1325_nhd27oled_bw_parallel
                0x00000000008003de        0x6 ./src/u8g_dev_ssd1325_nhd27oled_bw_new.o
                0x00000000008003de                u8g_dev_ssd1325_nhd27oled_bw_parallel
 .data.u8g_dev_ssd1325_nhd27oled_2x_bw_pb
                0x00000000008003e4        0x8 ./src/u8g_dev_ssd1325_nhd27oled_bw_new.o
                0x00000000008003e4                u8g_dev_ssd1325_nhd27oled_2x_bw_pb
 .data.u8g_dev_ssd1325_nhd27oled_2x_bw_sw_spi
                0x00000000008003ec        0x6 ./src/u8g_dev_ssd1325_nhd27oled_bw_new.o
                0x00000000008003ec                u8g_dev_ssd1325_nhd27oled_2x_bw_sw_spi
 .data.u8g_dev_ssd1325_nhd27oled_2x_bw_hw_spi
                0x00000000008003f2        0x6 ./src/u8g_dev_ssd1325_nhd27oled_bw_new.o
                0x00000000008003f2                u8g_dev_ssd1325_nhd27oled_2x_bw_hw_spi
 .data.u8g_dev_ssd1325_nhd27oled_2x_bw_parallel
                0x00000000008003f8        0x6 ./src/u8g_dev_ssd1325_nhd27oled_bw_new.o
                0x00000000008003f8                u8g_dev_ssd1325_nhd27oled_2x_bw_parallel
 .data.u8g_dev_ssd1325_nhd27oled_gr_sw_spi_pb
                0x00000000008003fe        0x8 ./src/u8g_dev_ssd1325_nhd27oled_gr_new.o
                0x00000000008003fe                u8g_dev_ssd1325_nhd27oled_gr_sw_spi_pb
 .data.u8g_dev_ssd1325_nhd27oled_gr_sw_spi
                0x0000000000800406        0x6 ./src/u8g_dev_ssd1325_nhd27oled_gr_new.o
                0x0000000000800406                u8g_dev_ssd1325_nhd27oled_gr_sw_spi
 .data.u8g_dev_ssd1325_nhd27oled_gr_hw_spi_pb
                0x000000000080040c        0x8 ./src/u8g_dev_ssd1325_nhd27oled_gr_new.o
                0x000000000080040c                u8g_dev_ssd1325_nhd27oled_gr_hw_spi_pb
 .data.u8g_dev_ssd1325_nhd27oled_gr_hw_spi
                0x0000000000800414        0x6 ./src/u8g_dev_ssd1325_nhd27oled_gr_new.o
                0x0000000000800414                u8g_dev_ssd1325_nhd27oled_gr_hw_spi
 .data.u8g_dev_ssd1325_nhd27oled_2x_pb
                0x000000000080041a        0x8 ./src/u8g_dev_ssd1325_nhd27oled_gr_new.o
                0x000000000080041a                u8g_dev_ssd1325_nhd27oled_2x_pb
 .data.u8g_dev_ssd1325_nhd27oled_2x_gr_sw_spi
                0x0000000000800422        0x6 ./src/u8g_dev_ssd1325_nhd27oled_gr_new.o
                0x0000000000800422                u8g_dev_ssd1325_nhd27oled_2x_gr_sw_spi
 .data.u8g_dev_ssd1325_nhd27oled_2x_gr_hw_spi
                0x0000000000800428        0x6 ./src/u8g_dev_ssd1325_nhd27oled_gr_new.o
                0x0000000000800428                u8g_dev_ssd1325_nhd27oled_2x_gr_hw_spi
 .data.u8g_dev_ssd1327_96x96_gr_sw_spi_pb
                0x000000000080042e        0x8 ./src/u8g_dev_ssd1327_96x96_gr.o
                0x000000000080042e                u8g_dev_ssd1327_96x96_gr_sw_spi_pb
 .data.u8g_dev_ssd1327_96x96_gr_sw_spi
                0x0000000000800436        0x6 ./src/u8g_dev_ssd1327_96x96_gr.o
                0x0000000000800436                u8g_dev_ssd1327_96x96_gr_sw_spi
 .data.u8g_dev_ssd1327_96x96_gr_hw_spi_pb
                0x000000000080043c        0x8 ./src/u8g_dev_ssd1327_96x96_gr.o
                0x000000000080043c                u8g_dev_ssd1327_96x96_gr_hw_spi_pb
 .data.u8g_dev_ssd1327_96x96_gr_hw_spi
                0x0000000000800444        0x6 ./src/u8g_dev_ssd1327_96x96_gr.o
                0x0000000000800444                u8g_dev_ssd1327_96x96_gr_hw_spi
 .data.u8g_dev_ssd1327_96x96_gr_i2c_pb
                0x000000000080044a        0x8 ./src/u8g_dev_ssd1327_96x96_gr.o
                0x000000000080044a                u8g_dev_ssd1327_96x96_gr_i2c_pb
 .data.u8g_dev_ssd1327_96x96_gr_i2c
                0x0000000000800452        0x6 ./src/u8g_dev_ssd1327_96x96_gr.o
                0x0000000000800452                u8g_dev_ssd1327_96x96_gr_i2c
 .data.u8g_dev_ssd1327_96x96_2x_pb
                0x0000000000800458        0x8 ./src/u8g_dev_ssd1327_96x96_gr.o
                0x0000000000800458                u8g_dev_ssd1327_96x96_2x_pb
 .data.u8g_dev_ssd1327_96x96_2x_gr_sw_spi
                0x0000000000800460        0x6 ./src/u8g_dev_ssd1327_96x96_gr.o
                0x0000000000800460                u8g_dev_ssd1327_96x96_2x_gr_sw_spi
 .data.u8g_dev_ssd1327_96x96_2x_gr_hw_spi
                0x0000000000800466        0x6 ./src/u8g_dev_ssd1327_96x96_gr.o
                0x0000000000800466                u8g_dev_ssd1327_96x96_2x_gr_hw_spi
 .data.u8g_dev_ssd1327_96x96_2x_gr_i2c
                0x000000000080046c        0x6 ./src/u8g_dev_ssd1327_96x96_gr.o
                0x000000000080046c                u8g_dev_ssd1327_96x96_2x_gr_i2c
 .data.u8g_dev_ssd1351_128x128_byte_pb
                0x0000000000800472        0x8 ./src/u8g_dev_ssd1351_128x128.o
                0x0000000000800472                u8g_dev_ssd1351_128x128_byte_pb
 .data.u8g_dev_ssd1351_128x128_332_sw_spi
                0x000000000080047a        0x6 ./src/u8g_dev_ssd1351_128x128.o
                0x000000000080047a                u8g_dev_ssd1351_128x128_332_sw_spi
 .data.u8g_dev_ssd1351_128x128_332_hw_spi
                0x0000000000800480        0x6 ./src/u8g_dev_ssd1351_128x128.o
                0x0000000000800480                u8g_dev_ssd1351_128x128_332_hw_spi
 .data.u8g_dev_ssd1351_128x128gh_332_sw_spi
                0x0000000000800486        0x6 ./src/u8g_dev_ssd1351_128x128.o
                0x0000000000800486                u8g_dev_ssd1351_128x128gh_332_sw_spi
 .data.u8g_dev_ssd1351_128x128gh_332_hw_spi
                0x000000000080048c        0x6 ./src/u8g_dev_ssd1351_128x128.o
                0x000000000080048c                u8g_dev_ssd1351_128x128gh_332_hw_spi
 .data.u8g_dev_ssd1351_128x128_hicolor_byte_pb
                0x0000000000800492        0x8 ./src/u8g_dev_ssd1351_128x128.o
                0x0000000000800492                u8g_dev_ssd1351_128x128_hicolor_byte_pb
 .data.u8g_dev_ssd1351_128x128_hicolor_sw_spi
                0x000000000080049a        0x6 ./src/u8g_dev_ssd1351_128x128.o
                0x000000000080049a                u8g_dev_ssd1351_128x128_hicolor_sw_spi
 .data.u8g_dev_ssd1351_128x128_hicolor_hw_spi
                0x00000000008004a0        0x6 ./src/u8g_dev_ssd1351_128x128.o
                0x00000000008004a0                u8g_dev_ssd1351_128x128_hicolor_hw_spi
 .data.u8g_dev_ssd1351_128x128gh_hicolor_sw_spi
                0x00000000008004a6        0x6 ./src/u8g_dev_ssd1351_128x128.o
                0x00000000008004a6                u8g_dev_ssd1351_128x128gh_hicolor_sw_spi
 .data.u8g_dev_ssd1351_128x128gh_hicolor_hw_spi
                0x00000000008004ac        0x6 ./src/u8g_dev_ssd1351_128x128.o
                0x00000000008004ac                u8g_dev_ssd1351_128x128gh_hicolor_hw_spi
 .data.u8g_dev_ssd1351_128x128_4x_332_byte_pb
                0x00000000008004b2        0x8 ./src/u8g_dev_ssd1351_128x128.o
                0x00000000008004b2                u8g_dev_ssd1351_128x128_4x_332_byte_pb
 .data.u8g_dev_ssd1351_128x128_4x_332_sw_spi
                0x00000000008004ba        0x6 ./src/u8g_dev_ssd1351_128x128.o
                0x00000000008004ba                u8g_dev_ssd1351_128x128_4x_332_sw_spi
 .data.u8g_dev_ssd1351_128x128_4x_332_hw_spi
                0x00000000008004c0        0x6 ./src/u8g_dev_ssd1351_128x128.o
                0x00000000008004c0                u8g_dev_ssd1351_128x128_4x_332_hw_spi
 .data.u8g_dev_ssd1351_128x128gh_4x_332_sw_spi
                0x00000000008004c6        0x6 ./src/u8g_dev_ssd1351_128x128.o
                0x00000000008004c6                u8g_dev_ssd1351_128x128gh_4x_332_sw_spi
 .data.u8g_dev_ssd1351_128x128gh_4x_332_hw_spi
                0x00000000008004cc        0x6 ./src/u8g_dev_ssd1351_128x128.o
                0x00000000008004cc                u8g_dev_ssd1351_128x128gh_4x_332_hw_spi
 .data.u8g_dev_ssd1351_128x128_4x_hicolor_byte_pb
                0x00000000008004d2        0x8 ./src/u8g_dev_ssd1351_128x128.o
                0x00000000008004d2                u8g_dev_ssd1351_128x128_4x_hicolor_byte_pb
 .data.u8g_dev_ssd1351_128x128_4x_hicolor_sw_spi
                0x00000000008004da        0x6 ./src/u8g_dev_ssd1351_128x128.o
                0x00000000008004da                u8g_dev_ssd1351_128x128_4x_hicolor_sw_spi
 .data.u8g_dev_ssd1351_128x128_4x_hicolor_hw_spi
                0x00000000008004e0        0x6 ./src/u8g_dev_ssd1351_128x128.o
                0x00000000008004e0                u8g_dev_ssd1351_128x128_4x_hicolor_hw_spi
 .data.u8g_dev_ssd1351_128x128gh_4x_hicolor_sw_spi
                0x00000000008004e6        0x6 ./src/u8g_dev_ssd1351_128x128.o
                0x00000000008004e6                u8g_dev_ssd1351_128x128gh_4x_hicolor_sw_spi
 .data.u8g_dev_ssd1351_128x128gh_4x_hicolor_hw_spi
                0x00000000008004ec        0x6 ./src/u8g_dev_ssd1351_128x128.o
                0x00000000008004ec                u8g_dev_ssd1351_128x128gh_4x_hicolor_hw_spi
 .data.u8g_dev_ssd1353_160x128_byte_pb
                0x00000000008004f2        0x8 ./src/u8g_dev_ssd1353_160x128.o
                0x00000000008004f2                u8g_dev_ssd1353_160x128_byte_pb
 .data.u8g_dev_ssd1353_160x128_332_sw_spi
                0x00000000008004fa        0x6 ./src/u8g_dev_ssd1353_160x128.o
                0x00000000008004fa                u8g_dev_ssd1353_160x128_332_sw_spi
 .data.u8g_dev_ssd1353_160x128_332_hw_spi
                0x0000000000800500        0x6 ./src/u8g_dev_ssd1353_160x128.o
                0x0000000000800500                u8g_dev_ssd1353_160x128_332_hw_spi
 .data.u8g_dev_ssd1353_160x128_hicolor_byte_pb
                0x0000000000800506        0x8 ./src/u8g_dev_ssd1353_160x128.o
                0x0000000000800506                u8g_dev_ssd1353_160x128_hicolor_byte_pb
 .data.u8g_dev_ssd1353_160x128_hicolor_sw_spi
                0x000000000080050e        0x6 ./src/u8g_dev_ssd1353_160x128.o
                0x000000000080050e                u8g_dev_ssd1353_160x128_hicolor_sw_spi
 .data.u8g_dev_ssd1353_160x128_hicolor_hw_spi
                0x0000000000800514        0x6 ./src/u8g_dev_ssd1353_160x128.o
                0x0000000000800514                u8g_dev_ssd1353_160x128_hicolor_hw_spi
 .data.u8g_dev_st7565_64128n_sw_spi_pb
                0x000000000080051a        0x8 ./src/u8g_dev_st7565_64128n.o
                0x000000000080051a                u8g_dev_st7565_64128n_sw_spi_pb
 .data.u8g_dev_st7565_64128n_sw_spi
                0x0000000000800522        0x6 ./src/u8g_dev_st7565_64128n.o
                0x0000000000800522                u8g_dev_st7565_64128n_sw_spi
 .data.u8g_dev_st7565_64128n_hw_spi_pb
                0x0000000000800528        0x8 ./src/u8g_dev_st7565_64128n.o
                0x0000000000800528                u8g_dev_st7565_64128n_hw_spi_pb
 .data.u8g_dev_st7565_64128n_hw_spi
                0x0000000000800530        0x6 ./src/u8g_dev_st7565_64128n.o
                0x0000000000800530                u8g_dev_st7565_64128n_hw_spi
 .data.u8g_dev_st7565_64128n_parallel_pb
                0x0000000000800536        0x8 ./src/u8g_dev_st7565_64128n.o
                0x0000000000800536                u8g_dev_st7565_64128n_parallel_pb
 .data.u8g_dev_st7565_64128n_parallel
                0x000000000080053e        0x6 ./src/u8g_dev_st7565_64128n.o
                0x000000000080053e                u8g_dev_st7565_64128n_parallel
 .data.u8g_dev_st7565_64128n_2x_pb
                0x0000000000800544        0x8 ./src/u8g_dev_st7565_64128n.o
                0x0000000000800544                u8g_dev_st7565_64128n_2x_pb
 .data.u8g_dev_st7565_64128n_2x_sw_spi
                0x000000000080054c        0x6 ./src/u8g_dev_st7565_64128n.o
                0x000000000080054c                u8g_dev_st7565_64128n_2x_sw_spi
 .data.u8g_dev_st7565_64128n_2x_hw_spi
                0x0000000000800552        0x6 ./src/u8g_dev_st7565_64128n.o
                0x0000000000800552                u8g_dev_st7565_64128n_2x_hw_spi
 .data.u8g_dev_st7565_64128n_2x_hw_parallel
                0x0000000000800558        0x6 ./src/u8g_dev_st7565_64128n.o
                0x0000000000800558                u8g_dev_st7565_64128n_2x_hw_parallel
 .data.u8g_dev_st7565_dogm128_sw_spi_pb
                0x000000000080055e        0x8 ./src/u8g_dev_st7565_dogm128.o
                0x000000000080055e                u8g_dev_st7565_dogm128_sw_spi_pb
 .data.u8g_dev_st7565_dogm128_sw_spi
                0x0000000000800566        0x6 ./src/u8g_dev_st7565_dogm128.o
                0x0000000000800566                u8g_dev_st7565_dogm128_sw_spi
 .data.u8g_dev_st7565_dogm128_hw_spi_pb
                0x000000000080056c        0x8 ./src/u8g_dev_st7565_dogm128.o
                0x000000000080056c                u8g_dev_st7565_dogm128_hw_spi_pb
 .data.u8g_dev_st7565_dogm128_hw_spi
                0x0000000000800574        0x6 ./src/u8g_dev_st7565_dogm128.o
                0x0000000000800574                u8g_dev_st7565_dogm128_hw_spi
 .data.u8g_dev_st7565_dogm128_parallel_pb
                0x000000000080057a        0x8 ./src/u8g_dev_st7565_dogm128.o
                0x000000000080057a                u8g_dev_st7565_dogm128_parallel_pb
 .data.u8g_dev_st7565_dogm128_parallel
                0x0000000000800582        0x6 ./src/u8g_dev_st7565_dogm128.o
                0x0000000000800582                u8g_dev_st7565_dogm128_parallel
 .data.u8g_dev_st7565_dogm128_2x_pb
                0x0000000000800588        0x8 ./src/u8g_dev_st7565_dogm128.o
                0x0000000000800588                u8g_dev_st7565_dogm128_2x_pb
 .data.u8g_dev_st7565_dogm128_2x_sw_spi
                0x0000000000800590        0x6 ./src/u8g_dev_st7565_dogm128.o
                0x0000000000800590                u8g_dev_st7565_dogm128_2x_sw_spi
 .data.u8g_dev_st7565_dogm128_2x_hw_spi
                0x0000000000800596        0x6 ./src/u8g_dev_st7565_dogm128.o
                0x0000000000800596                u8g_dev_st7565_dogm128_2x_hw_spi
 .data.u8g_dev_st7565_dogm128_2x_parallel
                0x000000000080059c        0x6 ./src/u8g_dev_st7565_dogm128.o
                0x000000000080059c                u8g_dev_st7565_dogm128_2x_parallel
 .data.u8g_dev_st7565_dogm132_sw_spi_pb
                0x00000000008005a2        0x8 ./src/u8g_dev_st7565_dogm132.o
                0x00000000008005a2                u8g_dev_st7565_dogm132_sw_spi_pb
 .data.u8g_dev_st7565_dogm132_sw_spi
                0x00000000008005aa        0x6 ./src/u8g_dev_st7565_dogm132.o
                0x00000000008005aa                u8g_dev_st7565_dogm132_sw_spi
 .data.u8g_dev_st7565_dogm132_hw_spi_pb
                0x00000000008005b0        0x8 ./src/u8g_dev_st7565_dogm132.o
                0x00000000008005b0                u8g_dev_st7565_dogm132_hw_spi_pb
 .data.u8g_dev_st7565_dogm132_hw_spi
                0x00000000008005b8        0x6 ./src/u8g_dev_st7565_dogm132.o
                0x00000000008005b8                u8g_dev_st7565_dogm132_hw_spi
 .data.u8g_dev_st7565_lm6059_sw_spi_pb
                0x00000000008005be        0x8 ./src/u8g_dev_st7565_lm6059.o
                0x00000000008005be                u8g_dev_st7565_lm6059_sw_spi_pb
 .data.u8g_dev_st7565_lm6059_sw_spi
                0x00000000008005c6        0x6 ./src/u8g_dev_st7565_lm6059.o
                0x00000000008005c6                u8g_dev_st7565_lm6059_sw_spi
 .data.u8g_dev_st7565_lm6059_hw_spi_pb
                0x00000000008005cc        0x8 ./src/u8g_dev_st7565_lm6059.o
                0x00000000008005cc                u8g_dev_st7565_lm6059_hw_spi_pb
 .data.u8g_dev_st7565_lm6059_hw_spi
                0x00000000008005d4        0x6 ./src/u8g_dev_st7565_lm6059.o
                0x00000000008005d4                u8g_dev_st7565_lm6059_hw_spi
 .data.u8g_dev_st7565_lm6059_2x_pb
                0x00000000008005da        0x8 ./src/u8g_dev_st7565_lm6059.o
                0x00000000008005da                u8g_dev_st7565_lm6059_2x_pb
 .data.u8g_dev_st7565_lm6059_2x_sw_spi
                0x00000000008005e2        0x6 ./src/u8g_dev_st7565_lm6059.o
                0x00000000008005e2                u8g_dev_st7565_lm6059_2x_sw_spi
 .data.u8g_dev_st7565_lm6059_2x_hw_spi
                0x00000000008005e8        0x6 ./src/u8g_dev_st7565_lm6059.o
                0x00000000008005e8                u8g_dev_st7565_lm6059_2x_hw_spi
 .data.u8g_dev_st7565_lm6063_sw_spi_pb
                0x00000000008005ee        0x8 ./src/u8g_dev_st7565_lm6063.o
                0x00000000008005ee                u8g_dev_st7565_lm6063_sw_spi_pb
 .data.u8g_dev_st7565_lm6063_sw_spi
                0x00000000008005f6        0x6 ./src/u8g_dev_st7565_lm6063.o
                0x00000000008005f6                u8g_dev_st7565_lm6063_sw_spi
 .data.u8g_dev_st7565_lm6063_hw_spi_pb
                0x00000000008005fc        0x8 ./src/u8g_dev_st7565_lm6063.o
                0x00000000008005fc                u8g_dev_st7565_lm6063_hw_spi_pb
 .data.u8g_dev_st7565_lm6063_hw_spi
                0x0000000000800604        0x6 ./src/u8g_dev_st7565_lm6063.o
                0x0000000000800604                u8g_dev_st7565_lm6063_hw_spi
 .data.u8g_dev_st7565_lm6063_2x_pb
                0x000000000080060a        0x8 ./src/u8g_dev_st7565_lm6063.o
                0x000000000080060a                u8g_dev_st7565_lm6063_2x_pb
 .data.u8g_dev_st7565_lm6063_2x_sw_spi
                0x0000000000800612        0x6 ./src/u8g_dev_st7565_lm6063.o
                0x0000000000800612                u8g_dev_st7565_lm6063_2x_sw_spi
 .data.u8g_dev_st7565_lm6063_2x_hw_spi
                0x0000000000800618        0x6 ./src/u8g_dev_st7565_lm6063.o
                0x0000000000800618                u8g_dev_st7565_lm6063_2x_hw_spi
 .data.u8g_dev_st7565_nhd_c12832_sw_spi_pb
                0x000000000080061e        0x8 ./src/u8g_dev_st7565_nhd_c12832.o
                0x000000000080061e                u8g_dev_st7565_nhd_c12832_sw_spi_pb
 .data.u8g_dev_st7565_nhd_c12832_sw_spi
                0x0000000000800626        0x6 ./src/u8g_dev_st7565_nhd_c12832.o
                0x0000000000800626                u8g_dev_st7565_nhd_c12832_sw_spi
 .data.u8g_dev_st7565_nhd_c12832_hw_spi_pb
                0x000000000080062c        0x8 ./src/u8g_dev_st7565_nhd_c12832.o
                0x000000000080062c                u8g_dev_st7565_nhd_c12832_hw_spi_pb
 .data.u8g_dev_st7565_nhd_c12832_hw_spi
                0x0000000000800634        0x6 ./src/u8g_dev_st7565_nhd_c12832.o
                0x0000000000800634                u8g_dev_st7565_nhd_c12832_hw_spi
 .data.u8g_dev_st7565_nhd_c12832_parallel_pb
                0x000000000080063a        0x8 ./src/u8g_dev_st7565_nhd_c12832.o
                0x000000000080063a                u8g_dev_st7565_nhd_c12832_parallel_pb
 .data.u8g_dev_st7565_nhd_c12832_parallel
                0x0000000000800642        0x6 ./src/u8g_dev_st7565_nhd_c12832.o
                0x0000000000800642                u8g_dev_st7565_nhd_c12832_parallel
 .data.u8g_dev_st7565_nhd_c12832_hw_usart_spi_pb
                0x0000000000800648        0x8 ./src/u8g_dev_st7565_nhd_c12832.o
                0x0000000000800648                u8g_dev_st7565_nhd_c12832_hw_usart_spi_pb
 .data.u8g_dev_st7565_nhd_c12832_hw_usart_spi
                0x0000000000800650        0x6 ./src/u8g_dev_st7565_nhd_c12832.o
                0x0000000000800650                u8g_dev_st7565_nhd_c12832_hw_usart_spi
 .data.u8g_dev_st7565_nhd_c12864_sw_spi_pb
                0x0000000000800656        0x8 ./src/u8g_dev_st7565_nhd_c12864.o
                0x0000000000800656                u8g_dev_st7565_nhd_c12864_sw_spi_pb
 .data.u8g_dev_st7565_nhd_c12864_sw_spi
                0x000000000080065e        0x6 ./src/u8g_dev_st7565_nhd_c12864.o
                0x000000000080065e                u8g_dev_st7565_nhd_c12864_sw_spi
 .data.u8g_dev_st7565_nhd_c12864_hw_spi_pb
                0x0000000000800664        0x8 ./src/u8g_dev_st7565_nhd_c12864.o
                0x0000000000800664                u8g_dev_st7565_nhd_c12864_hw_spi_pb
 .data.u8g_dev_st7565_nhd_c12864_hw_spi
                0x000000000080066c        0x6 ./src/u8g_dev_st7565_nhd_c12864.o
                0x000000000080066c                u8g_dev_st7565_nhd_c12864_hw_spi
 .data.u8g_dev_st7565_nhd_c12864_2x_pb
                0x0000000000800672        0x8 ./src/u8g_dev_st7565_nhd_c12864.o
                0x0000000000800672                u8g_dev_st7565_nhd_c12864_2x_pb
 .data.u8g_dev_st7565_nhd_c12864_2x_sw_spi
                0x000000000080067a        0x6 ./src/u8g_dev_st7565_nhd_c12864.o
                0x000000000080067a                u8g_dev_st7565_nhd_c12864_2x_sw_spi
 .data.u8g_dev_st7565_nhd_c12864_2x_hw_spi
                0x0000000000800680        0x6 ./src/u8g_dev_st7565_nhd_c12864.o
                0x0000000000800680                u8g_dev_st7565_nhd_c12864_2x_hw_spi
 .data.u8g_st7687_c144mvgd_8h8_pb
                0x0000000000800686        0x8 ./src/u8g_dev_st7687_c144mvgd.o
                0x0000000000800686                u8g_st7687_c144mvgd_8h8_pb
 .data.u8g_dev_st7687_c144mvgd_sw_spi
                0x000000000080068e        0x6 ./src/u8g_dev_st7687_c144mvgd.o
                0x000000000080068e                u8g_dev_st7687_c144mvgd_sw_spi
 .data.u8g_dev_st7687_c144mvgd_8bit
                0x0000000000800694        0x6 ./src/u8g_dev_st7687_c144mvgd.o
                0x0000000000800694                u8g_dev_st7687_c144mvgd_8bit
 .data.u8g_dev_st7920_128x64_sw_spi_pb
                0x000000000080069a        0x8 ./src/u8g_dev_st7920_128x64.o
                0x000000000080069a                u8g_dev_st7920_128x64_sw_spi_pb
 .data.u8g_dev_st7920_128x64_sw_spi
                0x00000000008006a2        0x6 ./src/u8g_dev_st7920_128x64.o
                0x00000000008006a2                u8g_dev_st7920_128x64_sw_spi
 .data.u8g_dev_st7920_128x64_hw_spi_pb
                0x00000000008006a8        0x8 ./src/u8g_dev_st7920_128x64.o
                0x00000000008006a8                u8g_dev_st7920_128x64_hw_spi_pb
 .data.u8g_dev_st7920_128x64_hw_spi
                0x00000000008006b0        0x6 ./src/u8g_dev_st7920_128x64.o
                0x00000000008006b0                u8g_dev_st7920_128x64_hw_spi
 .data.u8g_dev_st7920_128x64_8bit_pb
                0x00000000008006b6        0x8 ./src/u8g_dev_st7920_128x64.o
                0x00000000008006b6                u8g_dev_st7920_128x64_8bit_pb
 .data.u8g_dev_st7920_128x64_8bit
                0x00000000008006be        0x6 ./src/u8g_dev_st7920_128x64.o
                0x00000000008006be                u8g_dev_st7920_128x64_8bit
 .data.u8g_dev_st7920_128x64_custom_pb
                0x00000000008006c4        0x8 ./src/u8g_dev_st7920_128x64.o
                0x00000000008006c4                u8g_dev_st7920_128x64_custom_pb
 .data.u8g_dev_st7920_128x64_custom
                0x00000000008006cc        0x6 ./src/u8g_dev_st7920_128x64.o
                0x00000000008006cc                u8g_dev_st7920_128x64_custom
 .data.u8g_dev_st7920_128x64_4x_pb
                0x00000000008006d2        0x8 ./src/u8g_dev_st7920_128x64.o
                0x00000000008006d2                u8g_dev_st7920_128x64_4x_pb
 .data.u8g_dev_st7920_128x64_4x_sw_spi
                0x00000000008006da        0x6 ./src/u8g_dev_st7920_128x64.o
                0x00000000008006da                u8g_dev_st7920_128x64_4x_sw_spi
 .data.u8g_dev_st7920_128x64_4x_hw_spi
                0x00000000008006e0        0x6 ./src/u8g_dev_st7920_128x64.o
                0x00000000008006e0                u8g_dev_st7920_128x64_4x_hw_spi
 .data.u8g_dev_st7920_128x64_4x_8bit
                0x00000000008006e6        0x6 ./src/u8g_dev_st7920_128x64.o
                0x00000000008006e6                u8g_dev_st7920_128x64_4x_8bit
 .data.u8g_dev_st7920_128x64_4x_custom
                0x00000000008006ec        0x6 ./src/u8g_dev_st7920_128x64.o
                0x00000000008006ec                u8g_dev_st7920_128x64_4x_custom
 .data.u8g_dev_st7920_192x32_sw_spi_pb
                0x00000000008006f2        0x8 ./src/u8g_dev_st7920_192x32.o
                0x00000000008006f2                u8g_dev_st7920_192x32_sw_spi_pb
 .data.u8g_dev_st7920_192x32_sw_spi
                0x00000000008006fa        0x6 ./src/u8g_dev_st7920_192x32.o
                0x00000000008006fa                u8g_dev_st7920_192x32_sw_spi
 .data.u8g_dev_st7920_192x32_hw_spi_pb
                0x0000000000800700        0x8 ./src/u8g_dev_st7920_192x32.o
                0x0000000000800700                u8g_dev_st7920_192x32_hw_spi_pb
 .data.u8g_dev_st7920_192x32_hw_spi
                0x0000000000800708        0x6 ./src/u8g_dev_st7920_192x32.o
                0x0000000000800708                u8g_dev_st7920_192x32_hw_spi
 .data.u8g_dev_st7920_192x32_8bit_pb
                0x000000000080070e        0x8 ./src/u8g_dev_st7920_192x32.o
                0x000000000080070e                u8g_dev_st7920_192x32_8bit_pb
 .data.u8g_dev_st7920_192x32_8bit
                0x0000000000800716        0x6 ./src/u8g_dev_st7920_192x32.o
                0x0000000000800716                u8g_dev_st7920_192x32_8bit
 .data.u8g_dev_st7920_192x32_4x_pb
                0x000000000080071c        0x8 ./src/u8g_dev_st7920_192x32.o
                0x000000000080071c                u8g_dev_st7920_192x32_4x_pb
 .data.u8g_dev_st7920_192x32_4x_sw_spi
                0x0000000000800724        0x6 ./src/u8g_dev_st7920_192x32.o
                0x0000000000800724                u8g_dev_st7920_192x32_4x_sw_spi
 .data.u8g_dev_st7920_192x32_4x_hw_spi
                0x000000000080072a        0x6 ./src/u8g_dev_st7920_192x32.o
                0x000000000080072a                u8g_dev_st7920_192x32_4x_hw_spi
 .data.u8g_dev_st7920_192x32_4x_8bit
                0x0000000000800730        0x6 ./src/u8g_dev_st7920_192x32.o
                0x0000000000800730                u8g_dev_st7920_192x32_4x_8bit
 .data.u8g_dev_st7920_202x32_sw_spi_pb
                0x0000000000800736        0x8 ./src/u8g_dev_st7920_202x32.o
                0x0000000000800736                u8g_dev_st7920_202x32_sw_spi_pb
 .data.u8g_dev_st7920_202x32_sw_spi
                0x000000000080073e        0x6 ./src/u8g_dev_st7920_202x32.o
                0x000000000080073e                u8g_dev_st7920_202x32_sw_spi
 .data.u8g_dev_st7920_202x32_hw_spi_pb
                0x0000000000800744        0x8 ./src/u8g_dev_st7920_202x32.o
                0x0000000000800744                u8g_dev_st7920_202x32_hw_spi_pb
 .data.u8g_dev_st7920_202x32_hw_spi
                0x000000000080074c        0x6 ./src/u8g_dev_st7920_202x32.o
                0x000000000080074c                u8g_dev_st7920_202x32_hw_spi
 .data.u8g_dev_st7920_202x32_8bit_pb
                0x0000000000800752        0x8 ./src/u8g_dev_st7920_202x32.o
                0x0000000000800752                u8g_dev_st7920_202x32_8bit_pb
 .data.u8g_dev_st7920_202x32_8bit
                0x000000000080075a        0x6 ./src/u8g_dev_st7920_202x32.o
                0x000000000080075a                u8g_dev_st7920_202x32_8bit
 .data.u8g_dev_st7920_202x32_4x_pb
                0x0000000000800760        0x8 ./src/u8g_dev_st7920_202x32.o
                0x0000000000800760                u8g_dev_st7920_202x32_4x_pb
 .data.u8g_dev_st7920_202x32_4x_sw_spi
                0x0000000000800768        0x6 ./src/u8g_dev_st7920_202x32.o
                0x0000000000800768                u8g_dev_st7920_202x32_4x_sw_spi
 .data.u8g_dev_st7920_202x32_4x_hw_spi
                0x000000000080076e        0x6 ./src/u8g_dev_st7920_202x32.o
                0x000000000080076e                u8g_dev_st7920_202x32_4x_hw_spi
 .data.u8g_dev_st7920_202x32_4x_8bit
                0x0000000000800774        0x6 ./src/u8g_dev_st7920_202x32.o
                0x0000000000800774                u8g_dev_st7920_202x32_4x_8bit
 .data.u8g_dev_t6963_128x128_2x_bw_pb
                0x000000000080077a        0x8 ./src/u8g_dev_t6963_128x128.o
                0x000000000080077a                u8g_dev_t6963_128x128_2x_bw_pb
 .data.u8g_dev_t6963_128x128_8bit
                0x0000000000800782        0x6 ./src/u8g_dev_t6963_128x128.o
                0x0000000000800782                u8g_dev_t6963_128x128_8bit
 .data.u8g_dev_t6963_128x64_2x_bw_pb
                0x0000000000800788        0x8 ./src/u8g_dev_t6963_128x64.o
                0x0000000000800788                u8g_dev_t6963_128x64_2x_bw_pb
 .data.u8g_dev_t6963_128x64_8bit
                0x0000000000800790        0x6 ./src/u8g_dev_t6963_128x64.o
                0x0000000000800790                u8g_dev_t6963_128x64_8bit
 .data.u8g_dev_t6963_240x128_2x_bw_pb
                0x0000000000800796        0x8 ./src/u8g_dev_t6963_240x128.o
                0x0000000000800796                u8g_dev_t6963_240x128_2x_bw_pb
 .data.u8g_dev_t6963_240x128_8bit
                0x000000000080079e        0x6 ./src/u8g_dev_t6963_240x128.o
                0x000000000080079e                u8g_dev_t6963_240x128_8bit
 .data.u8g_dev_t6963_240x64_2x_bw_pb
                0x00000000008007a4        0x8 ./src/u8g_dev_t6963_240x64.o
                0x00000000008007a4                u8g_dev_t6963_240x64_2x_bw_pb
 .data.u8g_dev_t6963_240x64_8bit
                0x00000000008007ac        0x6 ./src/u8g_dev_t6963_240x64.o
                0x00000000008007ac                u8g_dev_t6963_240x64_8bit
 .data.u8g_dev_tls8204_84x48_sw_spi_pb
                0x00000000008007b2        0x8 ./src/u8g_dev_tls8204_84x48.o
                0x00000000008007b2                u8g_dev_tls8204_84x48_sw_spi_pb
 .data.u8g_dev_tls8204_84x48_sw_spi
                0x00000000008007ba        0x6 ./src/u8g_dev_tls8204_84x48.o
                0x00000000008007ba                u8g_dev_tls8204_84x48_sw_spi
 .data.u8g_dev_uc1601_c128032_sw_spi_pb
                0x00000000008007c0        0x8 ./src/u8g_dev_uc1601_c128032.o
                0x00000000008007c0                u8g_dev_uc1601_c128032_sw_spi_pb
 .data.u8g_dev_uc1601_c128032_sw_spi
                0x00000000008007c8        0x6 ./src/u8g_dev_uc1601_c128032.o
                0x00000000008007c8                u8g_dev_uc1601_c128032_sw_spi
 .data.u8g_dev_uc1601_c128032_hw_spi_pb
                0x00000000008007ce        0x8 ./src/u8g_dev_uc1601_c128032.o
                0x00000000008007ce                u8g_dev_uc1601_c128032_hw_spi_pb
 .data.u8g_dev_uc1601_c128032_hw_spi
                0x00000000008007d6        0x6 ./src/u8g_dev_uc1601_c128032.o
                0x00000000008007d6                u8g_dev_uc1601_c128032_hw_spi
 .data.u8g_dev_uc1601_c128032_2x_pb
                0x00000000008007dc        0x8 ./src/u8g_dev_uc1601_c128032.o
                0x00000000008007dc                u8g_dev_uc1601_c128032_2x_pb
 .data.u8g_dev_uc1601_c128032_2x_sw_spi
                0x00000000008007e4        0x6 ./src/u8g_dev_uc1601_c128032.o
                0x00000000008007e4                u8g_dev_uc1601_c128032_2x_sw_spi
 .data.u8g_dev_uc1601_c128032_2x_hw_spi
                0x00000000008007ea        0x6 ./src/u8g_dev_uc1601_c128032.o
                0x00000000008007ea                u8g_dev_uc1601_c128032_2x_hw_spi
 .data.u8g_dev_uc1608_240x128_sw_spi_pb
                0x00000000008007f0        0x8 ./src/u8g_dev_uc1608_240x128.o
                0x00000000008007f0                u8g_dev_uc1608_240x128_sw_spi_pb
 .data.u8g_dev_uc1608_240x128_sw_spi
                0x00000000008007f8        0x6 ./src/u8g_dev_uc1608_240x128.o
                0x00000000008007f8                u8g_dev_uc1608_240x128_sw_spi
 .data.u8g_dev_uc1608_240x128_hw_spi_pb
                0x00000000008007fe        0x8 ./src/u8g_dev_uc1608_240x128.o
                0x00000000008007fe                u8g_dev_uc1608_240x128_hw_spi_pb
 .data.u8g_dev_uc1608_240x128_hw_spi
                0x0000000000800806        0x6 ./src/u8g_dev_uc1608_240x128.o
                0x0000000000800806                u8g_dev_uc1608_240x128_hw_spi
 .data.u8g_dev_uc1608_240x128_2x_pb
                0x000000000080080c        0x8 ./src/u8g_dev_uc1608_240x128.o
                0x000000000080080c                u8g_dev_uc1608_240x128_2x_pb
 .data.u8g_dev_uc1608_240x128_2x_sw_spi
                0x0000000000800814        0x6 ./src/u8g_dev_uc1608_240x128.o
                0x0000000000800814                u8g_dev_uc1608_240x128_2x_sw_spi
 .data.u8g_dev_uc1608_240x128_2x_hw_spi
                0x000000000080081a        0x6 ./src/u8g_dev_uc1608_240x128.o
                0x000000000080081a                u8g_dev_uc1608_240x128_2x_hw_spi
 .data.u8g_dev_uc1608_240x64_sw_spi_pb
                0x0000000000800820        0x8 ./src/u8g_dev_uc1608_240x64.o
                0x0000000000800820                u8g_dev_uc1608_240x64_sw_spi_pb
 .data.u8g_dev_uc1608_240x64_sw_spi
                0x0000000000800828        0x6 ./src/u8g_dev_uc1608_240x64.o
                0x0000000000800828                u8g_dev_uc1608_240x64_sw_spi
 .data.u8g_dev_uc1608_240x64_hw_spi_pb
                0x000000000080082e        0x8 ./src/u8g_dev_uc1608_240x64.o
                0x000000000080082e                u8g_dev_uc1608_240x64_hw_spi_pb
 .data.u8g_dev_uc1608_240x64_hw_spi
                0x0000000000800836        0x6 ./src/u8g_dev_uc1608_240x64.o
                0x0000000000800836                u8g_dev_uc1608_240x64_hw_spi
 .data.u8g_dev_uc1608_240x64_2x_pb
                0x000000000080083c        0x8 ./src/u8g_dev_uc1608_240x64.o
                0x000000000080083c                u8g_dev_uc1608_240x64_2x_pb
 .data.u8g_dev_uc1608_240x64_2x_sw_spi
                0x0000000000800844        0x6 ./src/u8g_dev_uc1608_240x64.o
                0x0000000000800844                u8g_dev_uc1608_240x64_2x_sw_spi
 .data.u8g_dev_uc1608_240x64_2x_hw_spi
                0x000000000080084a        0x6 ./src/u8g_dev_uc1608_240x64.o
                0x000000000080084a                u8g_dev_uc1608_240x64_2x_hw_spi
 .data.u8g_dev_uc1610_dogxl160_bw_sw_spi_pb
                0x0000000000800850        0x8 ./src/u8g_dev_uc1610_dogxl160.o
                0x0000000000800850                u8g_dev_uc1610_dogxl160_bw_sw_spi_pb
 .data.u8g_dev_uc1610_dogxl160_bw_sw_spi
                0x0000000000800858        0x6 ./src/u8g_dev_uc1610_dogxl160.o
                0x0000000000800858                u8g_dev_uc1610_dogxl160_bw_sw_spi
 .data.u8g_dev_uc1610_dogxl160_bw_hw_spi_pb
                0x000000000080085e        0x8 ./src/u8g_dev_uc1610_dogxl160.o
                0x000000000080085e                u8g_dev_uc1610_dogxl160_bw_hw_spi_pb
 .data.u8g_dev_uc1610_dogxl160_bw_hw_spi
                0x0000000000800866        0x6 ./src/u8g_dev_uc1610_dogxl160.o
                0x0000000000800866                u8g_dev_uc1610_dogxl160_bw_hw_spi
 .data.u8g_dev_uc1610_dogxl160_gr_sw_spi_pb
                0x000000000080086c        0x8 ./src/u8g_dev_uc1610_dogxl160.o
                0x000000000080086c                u8g_dev_uc1610_dogxl160_gr_sw_spi_pb
 .data.u8g_dev_uc1610_dogxl160_gr_sw_spi
                0x0000000000800874        0x6 ./src/u8g_dev_uc1610_dogxl160.o
                0x0000000000800874                u8g_dev_uc1610_dogxl160_gr_sw_spi
 .data.u8g_dev_uc1610_dogxl160_gr_hw_spi_pb
                0x000000000080087a        0x8 ./src/u8g_dev_uc1610_dogxl160.o
                0x000000000080087a                u8g_dev_uc1610_dogxl160_gr_hw_spi_pb
 .data.u8g_dev_uc1610_dogxl160_gr_hw_spi
                0x0000000000800882        0x6 ./src/u8g_dev_uc1610_dogxl160.o
                0x0000000000800882                u8g_dev_uc1610_dogxl160_gr_hw_spi
 .data.u8g_dev_uc1610_dogxl160_2x_bw_pb
                0x0000000000800888        0x8 ./src/u8g_dev_uc1610_dogxl160.o
                0x0000000000800888                u8g_dev_uc1610_dogxl160_2x_bw_pb
 .data.u8g_dev_uc1610_dogxl160_2x_bw_sw_spi
                0x0000000000800890        0x6 ./src/u8g_dev_uc1610_dogxl160.o
                0x0000000000800890                u8g_dev_uc1610_dogxl160_2x_bw_sw_spi
 .data.u8g_dev_uc1610_dogxl160_2x_bw_hw_spi
                0x0000000000800896        0x6 ./src/u8g_dev_uc1610_dogxl160.o
                0x0000000000800896                u8g_dev_uc1610_dogxl160_2x_bw_hw_spi
 .data.u8g_dev_uc1610_dogxl160_2x_gr_pb
                0x000000000080089c        0x8 ./src/u8g_dev_uc1610_dogxl160.o
                0x000000000080089c                u8g_dev_uc1610_dogxl160_2x_gr_pb
 .data.u8g_dev_uc1610_dogxl160_2x_gr_sw_spi
                0x00000000008008a4        0x6 ./src/u8g_dev_uc1610_dogxl160.o
                0x00000000008008a4                u8g_dev_uc1610_dogxl160_2x_gr_sw_spi
 .data.u8g_dev_uc1610_dogxl160_2x_gr_hw_spi
                0x00000000008008aa        0x6 ./src/u8g_dev_uc1610_dogxl160.o
                0x00000000008008aa                u8g_dev_uc1610_dogxl160_2x_gr_hw_spi
 .data.u8g_dev_uc1611_dogm240_i2c_pb
                0x00000000008008b0        0x8 ./src/u8g_dev_uc1611_dogm240.o
                0x00000000008008b0                u8g_dev_uc1611_dogm240_i2c_pb
 .data.u8g_dev_uc1611_dogm240_i2c
                0x00000000008008b8        0x6 ./src/u8g_dev_uc1611_dogm240.o
                0x00000000008008b8                u8g_dev_uc1611_dogm240_i2c
 .data.u8g_dev_uc1611_dogm240_sw_spi_pb
                0x00000000008008be        0x8 ./src/u8g_dev_uc1611_dogm240.o
                0x00000000008008be                u8g_dev_uc1611_dogm240_sw_spi_pb
 .data.u8g_dev_uc1611_dogm240_sw_spi
                0x00000000008008c6        0x6 ./src/u8g_dev_uc1611_dogm240.o
                0x00000000008008c6                u8g_dev_uc1611_dogm240_sw_spi
 .data.u8g_dev_uc1611_dogm240_hw_spi_pb
                0x00000000008008cc        0x8 ./src/u8g_dev_uc1611_dogm240.o
                0x00000000008008cc                u8g_dev_uc1611_dogm240_hw_spi_pb
 .data.u8g_dev_uc1611_dogm240_hw_spi
                0x00000000008008d4        0x6 ./src/u8g_dev_uc1611_dogm240.o
                0x00000000008008d4                u8g_dev_uc1611_dogm240_hw_spi
 .data.u8g_dev_uc1611_dogm240_8bit_pb
                0x00000000008008da        0x8 ./src/u8g_dev_uc1611_dogm240.o
                0x00000000008008da                u8g_dev_uc1611_dogm240_8bit_pb
 .data.u8g_dev_uc1611_dogm240_8bit
                0x00000000008008e2        0x6 ./src/u8g_dev_uc1611_dogm240.o
                0x00000000008008e2                u8g_dev_uc1611_dogm240_8bit
 .data.u8g_dev_uc1611_dogxl240_i2c_pb
                0x00000000008008e8        0x8 ./src/u8g_dev_uc1611_dogxl240.o
                0x00000000008008e8                u8g_dev_uc1611_dogxl240_i2c_pb
 .data.u8g_dev_uc1611_dogxl240_i2c
                0x00000000008008f0        0x6 ./src/u8g_dev_uc1611_dogxl240.o
                0x00000000008008f0                u8g_dev_uc1611_dogxl240_i2c
 .data.u8g_dev_uc1611_dogxl240_sw_spi_pb
                0x00000000008008f6        0x8 ./src/u8g_dev_uc1611_dogxl240.o
                0x00000000008008f6                u8g_dev_uc1611_dogxl240_sw_spi_pb
 .data.u8g_dev_uc1611_dogxl240_sw_spi
                0x00000000008008fe        0x6 ./src/u8g_dev_uc1611_dogxl240.o
                0x00000000008008fe                u8g_dev_uc1611_dogxl240_sw_spi
 .data.u8g_dev_uc1611_dogxl240_hw_spi_pb
                0x0000000000800904        0x8 ./src/u8g_dev_uc1611_dogxl240.o
                0x0000000000800904                u8g_dev_uc1611_dogxl240_hw_spi_pb
 .data.u8g_dev_uc1611_dogxl240_hw_spi
                0x000000000080090c        0x6 ./src/u8g_dev_uc1611_dogxl240.o
                0x000000000080090c                u8g_dev_uc1611_dogxl240_hw_spi
 .data.u8g_dev_uc1611_dogxl240_8bit_pb
                0x0000000000800912        0x8 ./src/u8g_dev_uc1611_dogxl240.o
                0x0000000000800912                u8g_dev_uc1611_dogxl240_8bit_pb
 .data.u8g_dev_uc1611_dogxl240_8bit
                0x000000000080091a        0x6 ./src/u8g_dev_uc1611_dogxl240.o
                0x000000000080091a                u8g_dev_uc1611_dogxl240_8bit
 .data.u8g_dev_uc1701_dogs102_sw_spi_pb
                0x0000000000800920        0x8 ./src/u8g_dev_uc1701_dogs102.o
                0x0000000000800920                u8g_dev_uc1701_dogs102_sw_spi_pb
 .data.u8g_dev_uc1701_dogs102_sw_spi
                0x0000000000800928        0x6 ./src/u8g_dev_uc1701_dogs102.o
                0x0000000000800928                u8g_dev_uc1701_dogs102_sw_spi
 .data.u8g_dev_uc1701_dogs102_hw_spi_pb
                0x000000000080092e        0x8 ./src/u8g_dev_uc1701_dogs102.o
                0x000000000080092e                u8g_dev_uc1701_dogs102_hw_spi_pb
 .data.u8g_dev_uc1701_dogs102_hw_spi
                0x0000000000800936        0x6 ./src/u8g_dev_uc1701_dogs102.o
                0x0000000000800936                u8g_dev_uc1701_dogs102_hw_spi
 .data.u8g_dev_uc1701_dogs102_2x_pb
                0x000000000080093c        0x8 ./src/u8g_dev_uc1701_dogs102.o
                0x000000000080093c                u8g_dev_uc1701_dogs102_2x_pb
 .data.u8g_dev_uc1701_dogs102_2x_sw_spi
                0x0000000000800944        0x6 ./src/u8g_dev_uc1701_dogs102.o
                0x0000000000800944                u8g_dev_uc1701_dogs102_2x_sw_spi
 .data.u8g_dev_uc1701_dogs102_2x_hw_spi
                0x000000000080094a        0x6 ./src/u8g_dev_uc1701_dogs102.o
                0x000000000080094a                u8g_dev_uc1701_dogs102_2x_hw_spi
 .data.u8g_dev_uc1701_mini12864_sw_spi_pb
                0x0000000000800950        0x8 ./src/u8g_dev_uc1701_mini12864.o
                0x0000000000800950                u8g_dev_uc1701_mini12864_sw_spi_pb
 .data.u8g_dev_uc1701_mini12864_sw_spi
                0x0000000000800958        0x6 ./src/u8g_dev_uc1701_mini12864.o
                0x0000000000800958                u8g_dev_uc1701_mini12864_sw_spi
 .data.u8g_dev_uc1701_mini12864_hw_spi_pb
                0x000000000080095e        0x8 ./src/u8g_dev_uc1701_mini12864.o
                0x000000000080095e                u8g_dev_uc1701_mini12864_hw_spi_pb
 .data.u8g_dev_uc1701_mini12864_hw_spi
                0x0000000000800966        0x6 ./src/u8g_dev_uc1701_mini12864.o
                0x0000000000800966                u8g_dev_uc1701_mini12864_hw_spi
 .data.u8g_dev_uc1701_mini12864_2x_pb
                0x000000000080096c        0x8 ./src/u8g_dev_uc1701_mini12864.o
                0x000000000080096c                u8g_dev_uc1701_mini12864_2x_pb
 .data.u8g_dev_uc1701_mini12864_2x_sw_spi
                0x0000000000800974        0x6 ./src/u8g_dev_uc1701_mini12864.o
                0x0000000000800974                u8g_dev_uc1701_mini12864_2x_sw_spi
 .data.u8g_dev_uc1701_mini12864_2x_hw_spi
                0x000000000080097a        0x6 ./src/u8g_dev_uc1701_mini12864.o
                0x000000000080097a                u8g_dev_uc1701_mini12864_2x_hw_spi
 .data.u8g_dev_rot
                0x0000000000800980        0x6 ./src/u8g_rot.o
                0x0000000000800980                u8g_dev_rot
 .data.u8g_dev_scale
                0x0000000000800986        0x6 ./src/u8g_scale.o
                0x0000000000800986                u8g_dev_scale
 .data.u8g_dev_vs
                0x000000000080098c        0x6 ./src/u8g_virtual_screen.o
                0x000000000080098c                u8g_dev_vs
 *(.gnu.linkonce.d*)
 *(.rodata)
 .rodata        0x0000000000800992       0x65 ./src/chessengine.o
 .rodata        0x00000000008009f7        0xd ./main.o
 *(.rodata*)
 .rodata.u8g_u8toa_tab
                0x0000000000800a04        0x3 ./src/u8g_u8toa.o
 *(.gnu.linkonce.r*)
                0x0000000000800a08                . = ALIGN (0x2)
 *fill*         0x0000000000800a07        0x1 
                0x0000000000800a08                _edata = .
                0x0000000000800a08                PROVIDE (__data_end, .)

.bss            0x0000000000800a08     0x8c44
                0x0000000000800a08                PROVIDE (__bss_start, .)
 *(.bss)
 .bss           0x0000000000800a08        0x0 /usr/local/Cellar/avr-gcc/7.2.0/lib/avr-gcc/7/gcc/avr/7.2.0/../../../../../../avr/lib/avr5/crtatmega16.o
 .bss           0x0000000000800a08        0x0 ./src/chessengine.o
 .bss           0x0000000000800a08        0x0 ./src/u8g_bitmap.o
 .bss           0x0000000000800a08        0x0 ./src/u8g_circle.o
 .bss           0x0000000000800a08        0x0 ./src/u8g_clip.o
 .bss           0x0000000000800a08        0x0 ./src/u8g_com_api.o
 .bss           0x0000000000800a08        0x0 ./src/u8g_com_api_16gr.o
 .bss           0x0000000000800a08        0x0 ./src/u8g_com_arduino_attiny85_hw_spi.o
 .bss           0x0000000000800a08        0x0 ./src/u8g_com_arduino_common.o
 .bss           0x0000000000800a08        0x0 ./src/u8g_com_arduino_fast_parallel.o
 .bss           0x0000000000800a08        0x0 ./src/u8g_com_arduino_hw_spi.o
 .bss           0x0000000000800a08        0x0 ./src/u8g_com_arduino_hw_usart_spi.o
 .bss           0x0000000000800a08        0x0 ./src/u8g_com_arduino_no_en_parallel.o
 .bss           0x0000000000800a08        0x0 ./src/u8g_com_arduino_parallel.o
 .bss           0x0000000000800a08        0x0 ./src/u8g_com_arduino_port_d_wr.o
 .bss           0x0000000000800a08        0x0 ./src/u8g_com_arduino_ssd_i2c.o
 .bss           0x0000000000800a08        0x0 ./src/u8g_com_arduino_st7920_custom.o
 .bss           0x0000000000800a08        0x0 ./src/u8g_com_arduino_st7920_hw_spi.o
 .bss           0x0000000000800a08        0x0 ./src/u8g_com_arduino_st7920_spi.o
 .bss           0x0000000000800a08        0x0 ./src/u8g_com_arduino_std_sw_spi.o
 .bss           0x0000000000800a08        0x0 ./src/u8g_com_arduino_sw_spi.o
 .bss           0x0000000000800a08        0x0 ./src/u8g_com_arduino_t6963.o
 .bss           0x0000000000800a08        0x0 ./src/u8g_com_arduino_uc_i2c.o
 .bss           0x0000000000800a08        0x0 ./src/u8g_com_atmega_hw_spi.o
 .bss           0x0000000000800a08        0x0 ./src/u8g_com_atmega_parallel.o
 .bss           0x0000000000800a08        0x0 ./src/u8g_com_atmega_st7920_hw_spi.o
 .bss           0x0000000000800a08        0x0 ./src/u8g_com_atmega_st7920_spi.o
 .bss           0x0000000000800a08        0x0 ./src/u8g_com_atmega_sw_spi.o
 .bss           0x0000000000800a08        0x0 ./src/u8g_com_i2c.o
 .bss           0x0000000000800a08        0x0 ./src/u8g_com_io.o
 .bss           0x0000000000800a08        0x0 ./src/u8g_com_msp430_hw_spi.o
 .bss           0x0000000000800a08        0x0 ./src/u8g_com_null.o
 .bss           0x0000000000800a08        0x0 ./src/u8g_com_raspberrypi_hw_spi.o
 .bss           0x0000000000800a08        0x0 ./src/u8g_com_raspberrypi_ssd_i2c.o
 .bss           0x0000000000800a08        0x0 ./src/u8g_com_std_sw_spi.o
 .bss           0x0000000000800a08        0x0 ./src/u8g_cursor.o
 .bss           0x0000000000800a08        0x0 ./src/u8g_delay.o
 .bss           0x0000000000800a08        0x0 ./src/u8g_dev_a2_micro_printer.o
 .bss           0x0000000000800a08        0x0 ./src/u8g_dev_flipdisc_2x7.o
 .bss           0x0000000000800a08        0x0 ./src/u8g_dev_gprof.o
 .bss           0x0000000000800a08        0x0 ./src/u8g_dev_ht1632.o
 .bss           0x0000000000800a08        0x0 ./src/u8g_dev_ili9325d_320x240.o
 .bss           0x0000000000800a08        0x0 ./src/u8g_dev_ks0108_128x64.o
 .bss           0x0000000000800a08        0x0 ./src/u8g_dev_lc7981_160x80.o
 .bss           0x0000000000800a08        0x0 ./src/u8g_dev_lc7981_240x128.o
 .bss           0x0000000000800a08        0x0 ./src/u8g_dev_lc7981_240x64.o
 .bss           0x0000000000800a08        0x0 ./src/u8g_dev_lc7981_320x64.o
 .bss           0x0000000000800a08        0x0 ./src/u8g_dev_ld7032_60x32.o
 .bss           0x0000000000800a08        0x0 ./src/u8g_dev_null.o
 .bss           0x0000000000800a08        0x0 ./src/u8g_dev_pcd8544_84x48.o
 .bss           0x0000000000800a08        0x0 ./src/u8g_dev_pcf8812_96x65.o
 .bss           0x0000000000800a08        0x0 ./src/u8g_dev_sbn1661_122x32.o
 .bss           0x0000000000800a08        0x0 ./src/u8g_dev_ssd1306_128x32.o
 .bss           0x0000000000800a08        0x0 ./src/u8g_dev_ssd1306_128x64.o
 .bss           0x0000000000800a08        0x0 ./src/u8g_dev_ssd1306_64x48.o
 .bss           0x0000000000800a08        0x0 ./src/u8g_dev_ssd1309_128x64.o
 .bss           0x0000000000800a08        0x0 ./src/u8g_dev_ssd1322_nhd31oled_bw.o
 .bss           0x0000000000800a08        0x0 ./src/u8g_dev_ssd1322_nhd31oled_gr.o
 .bss           0x0000000000800a08        0x0 ./src/u8g_dev_ssd1325_nhd27oled_bw.o
 .bss           0x0000000000800a08        0x0 ./src/u8g_dev_ssd1325_nhd27oled_bw_new.o
 .bss           0x0000000000800a08        0x0 ./src/u8g_dev_ssd1325_nhd27oled_gr.o
 .bss           0x0000000000800a08        0x0 ./src/u8g_dev_ssd1325_nhd27oled_gr_new.o
 .bss           0x0000000000800a08        0x0 ./src/u8g_dev_ssd1327_96x96_gr.o
 .bss           0x0000000000800a08        0x0 ./src/u8g_dev_ssd1351_128x128.o
 .bss           0x0000000000800a08        0x0 ./src/u8g_dev_ssd1353_160x128.o
 .bss           0x0000000000800a08        0x0 ./src/u8g_dev_st7565_64128n.o
 .bss           0x0000000000800a08        0x0 ./src/u8g_dev_st7565_dogm128.o
 .bss           0x0000000000800a08        0x0 ./src/u8g_dev_st7565_dogm132.o
 .bss           0x0000000000800a08        0x0 ./src/u8g_dev_st7565_lm6059.o
 .bss           0x0000000000800a08        0x0 ./src/u8g_dev_st7565_lm6063.o
 .bss           0x0000000000800a08        0x0 ./src/u8g_dev_st7565_nhd_c12832.o
 .bss           0x0000000000800a08        0x0 ./src/u8g_dev_st7565_nhd_c12864.o
 .bss           0x0000000000800a08        0x0 ./src/u8g_dev_st7687_c144mvgd.o
 .bss           0x0000000000800a08        0x0 ./src/u8g_dev_st7920_128x64.o
 .bss           0x0000000000800a08        0x0 ./src/u8g_dev_st7920_192x32.o
 .bss           0x0000000000800a08        0x0 ./src/u8g_dev_st7920_202x32.o
 .bss           0x0000000000800a08        0x0 ./src/u8g_dev_t6963_128x128.o
 .bss           0x0000000000800a08        0x0 ./src/u8g_dev_t6963_128x64.o
 .bss           0x0000000000800a08        0x0 ./src/u8g_dev_t6963_240x128.o
 .bss           0x0000000000800a08        0x0 ./src/u8g_dev_t6963_240x64.o
 .bss           0x0000000000800a08        0x0 ./src/u8g_dev_tls8204_84x48.o
 .bss           0x0000000000800a08        0x0 ./src/u8g_dev_uc1601_c128032.o
 .bss           0x0000000000800a08        0x0 ./src/u8g_dev_uc1608_240x128.o
 .bss           0x0000000000800a08        0x0 ./src/u8g_dev_uc1608_240x64.o
 .bss           0x0000000000800a08        0x0 ./src/u8g_dev_uc1610_dogxl160.o
 .bss           0x0000000000800a08        0x0 ./src/u8g_dev_uc1611_dogm240.o
 .bss           0x0000000000800a08        0x0 ./src/u8g_dev_uc1611_dogxl240.o
 .bss           0x0000000000800a08        0x0 ./src/u8g_dev_uc1701_dogs102.o
 .bss           0x0000000000800a08        0x0 ./src/u8g_dev_uc1701_mini12864.o
 .bss           0x0000000000800a08        0x0 ./src/u8g_ellipse.o
 .bss           0x0000000000800a08        0x0 ./src/u8g_font.o
 .bss           0x0000000000800a08        0x0 ./src/u8g_font_data.o
 .bss           0x0000000000800a08        0x0 ./src/u8g_line.o
 .bss           0x0000000000800a08        0x0 ./src/u8g_ll_api.o
 .bss           0x0000000000800a08        0x0 ./src/u8g_page.o
 .bss           0x0000000000800a08        0x0 ./src/u8g_pb.o
 .bss           0x0000000000800a08        0x0 ./src/u8g_pb14v1.o
 .bss           0x0000000000800a08        0x0 ./src/u8g_pb16h1.o
 .bss           0x0000000000800a08        0x0 ./src/u8g_pb16h2.o
 .bss           0x0000000000800a08        0x0 ./src/u8g_pb16v1.o
 .bss           0x0000000000800a08        0x0 ./src/u8g_pb16v2.o
 .bss           0x0000000000800a08        0x0 ./src/u8g_pb32h1.o
 .bss           0x0000000000800a08        0x0 ./src/u8g_pb8h1.o
 .bss           0x0000000000800a08        0x0 ./src/u8g_pb8h1f.o
 .bss           0x0000000000800a08        0x0 ./src/u8g_pb8h2.o
 .bss           0x0000000000800a08        0x0 ./src/u8g_pb8h8.o
 .bss           0x0000000000800a08        0x0 ./src/u8g_pb8v1.o
 .bss           0x0000000000800a08        0x0 ./src/u8g_pb8v2.o
 .bss           0x0000000000800a08        0x0 ./src/u8g_pbxh16.o
 .bss           0x0000000000800a08        0x0 ./src/u8g_pbxh24.o
 .bss           0x0000000000800a08        0x0 ./src/u8g_polygon.o
 .bss           0x0000000000800a08        0x0 ./src/u8g_rect.o
 .bss           0x0000000000800a08        0x0 ./src/u8g_rot.o
 .bss           0x0000000000800a08        0x0 ./src/u8g_scale.o
 .bss           0x0000000000800a08        0x0 ./src/u8g_state.o
 .bss           0x0000000000800a08        0x0 ./src/u8g_u16toa.o
 .bss           0x0000000000800a08        0x0 ./src/u8g_u8toa.o
 .bss           0x0000000000800a08        0x0 ./src/u8g_virtual_screen.o
 .bss           0x0000000000800a08        0x0 ./main.o
 .bss           0x0000000000800a08        0x0 /usr/local/Cellar/avr-gcc/7.2.0/lib/avr-gcc/7/gcc/avr/7.2.0/avr5/libgcc.a(_divmodhi4.o)
 .bss           0x0000000000800a08        0x0 /usr/local/Cellar/avr-gcc/7.2.0/lib/avr-gcc/7/gcc/avr/7.2.0/avr5/libgcc.a(_exit.o)
 .bss           0x0000000000800a08        0x0 /usr/local/Cellar/avr-gcc/7.2.0/lib/avr-gcc/7/gcc/avr/7.2.0/avr5/libgcc.a(_tablejump2.o)
 .bss           0x0000000000800a08        0x0 /usr/local/Cellar/avr-gcc/7.2.0/lib/avr-gcc/7/gcc/avr/7.2.0/avr5/libgcc.a(_copy_data.o)
 .bss           0x0000000000800a08        0x0 /usr/local/Cellar/avr-gcc/7.2.0/lib/avr-gcc/7/gcc/avr/7.2.0/avr5/libgcc.a(_clear_bss.o)
 .bss           0x0000000000800a08        0x0 /usr/local/Cellar/avr-gcc/7.2.0/lib/avr-gcc/7/gcc/avr/7.2.0/avr5/libgcc.a(_umulhisi3.o)
 .bss           0x0000000000800a08        0x0 /usr/local/Cellar/avr-gcc/7.2.0/lib/avr-gcc/7/gcc/avr/7.2.0/avr5/libgcc.a(_udivmodhi4.o)
 .bss           0x0000000000800a08        0x0 /usr/local/Cellar/avr-gcc/7.2.0/lib/avr-gcc/7/gcc/avr/7.2.0/../../../../../../avr/lib/avr5/libc.a(memcpy_P.o)
 *(.bss*)
 .bss.mnu_pos   0x0000000000800a08        0x1 ./src/chessengine.o
                0x0000000000800a08                mnu_pos
 .bss.chess_key_code
                0x0000000000800a09        0x1 ./src/chessengine.o
                0x0000000000800a09                chess_key_code
 .bss.chess_key_cmd
                0x0000000000800a0a        0x1 ./src/chessengine.o
                0x0000000000800a0a                chess_key_cmd
 .bss.chess_state
                0x0000000000800a0b        0x1 ./src/chessengine.o
                0x0000000000800a0b                chess_state
 .bss.buf.3548  0x0000000000800a0c        0x7 ./src/chessengine.o
 .bss.buf.3340  0x0000000000800a13        0x4 ./src/u8g_com_api_16gr.o
 .bss.u8g_i2c_err_code
                0x0000000000800a17        0x1 ./src/u8g_com_i2c.o
 .bss.u8g_i2c_opt
                0x0000000000800a18        0x1 ./src/u8g_com_i2c.o
 .bss.u8g_i2c_err_pos
                0x0000000000800a19        0x1 ./src/u8g_com_i2c.o
 .bss.u8g_dev_a2_micro_printer_384x240_buf
                0x0000000000800a1a       0xf0 ./src/u8g_dev_a2_micro_printer.o
                0x0000000000800a1a                u8g_dev_a2_micro_printer_384x240_buf
 .bss.u8g_dev_a2_micro_printer_192x360_ds_buf
                0x0000000000800b0a       0xc0 ./src/u8g_dev_a2_micro_printer.o
                0x0000000000800b0a                u8g_dev_a2_micro_printer_192x360_ds_buf
 .bss.u8g_dev_a2_micro_printer_192x720_ds_buf
                0x0000000000800bca       0xc0 ./src/u8g_dev_a2_micro_printer.o
                0x0000000000800bca                u8g_dev_a2_micro_printer_192x720_ds_buf
 .bss.u8g_dev_a2_micro_printer_192x120_ds_buf
                0x0000000000800c8a       0xc0 ./src/u8g_dev_a2_micro_printer.o
                0x0000000000800c8a                u8g_dev_a2_micro_printer_192x120_ds_buf
 .bss.u8g_dev_flipdisc_2x7_bw_buf
                0x0000000000800d4a       0x38 ./src/u8g_dev_flipdisc_2x7.o
                0x0000000000800d4a                u8g_dev_flipdisc_2x7_bw_buf
 .bss.u8g_dev_ht1632_24x16_buf
                0x0000000000800d82       0x30 ./src/u8g_dev_ht1632.o
                0x0000000000800d82                u8g_dev_ht1632_24x16_buf
 .bss.u8g_ili9325d_320x240_8h8_buf
                0x0000000000800db2      0x3c0 ./src/u8g_dev_ili9325d_320x240.o
                0x0000000000800db2                u8g_ili9325d_320x240_8h8_buf
 .bss.u8g_dev_ks0108_128x64_buf
                0x0000000000801172       0x80 ./src/u8g_dev_ks0108_128x64.o
                0x0000000000801172                u8g_dev_ks0108_128x64_buf
 .bss.u8g_dev_ks0108_128x64_fast_buf
                0x00000000008011f2       0x80 ./src/u8g_dev_ks0108_128x64.o
                0x00000000008011f2                u8g_dev_ks0108_128x64_fast_buf
 .bss.u8g_dev_lc7981_160x80_8bit_buf
                0x0000000000801272       0xa0 ./src/u8g_dev_lc7981_160x80.o
                0x0000000000801272                u8g_dev_lc7981_160x80_8bit_buf
 .bss.u8g_dev_lc7981_240x128_8bit_buf
                0x0000000000801312       0xf0 ./src/u8g_dev_lc7981_240x128.o
                0x0000000000801312                u8g_dev_lc7981_240x128_8bit_buf
 .bss.u8g_dev_lc7981_240x64_8bit_buf
                0x0000000000801402       0xf0 ./src/u8g_dev_lc7981_240x64.o
                0x0000000000801402                u8g_dev_lc7981_240x64_8bit_buf
 .bss.u8g_dev_lc7981_320x64_8bit_buf
                0x00000000008014f2       0xf0 ./src/u8g_dev_lc7981_320x64.o
                0x00000000008014f2                u8g_dev_lc7981_320x64_8bit_buf
 .bss.u8g_dev_ld7032_60x32_sw_spi_buf
                0x00000000008015e2       0x40 ./src/u8g_dev_ld7032_60x32.o
                0x00000000008015e2                u8g_dev_ld7032_60x32_sw_spi_buf
 .bss.u8g_dev_ld7032_60x32_hw_spi_buf
                0x0000000000801622       0x40 ./src/u8g_dev_ld7032_60x32.o
                0x0000000000801622                u8g_dev_ld7032_60x32_hw_spi_buf
 .bss.u8g_dev_ld7032_60x32_parallel_buf
                0x0000000000801662       0x40 ./src/u8g_dev_ld7032_60x32.o
                0x0000000000801662                u8g_dev_ld7032_60x32_parallel_buf
 .bss.u8g_dev_ld7032_60x32_hw_usart_spi_buf
                0x00000000008016a2       0x40 ./src/u8g_dev_ld7032_60x32.o
                0x00000000008016a2                u8g_dev_ld7032_60x32_hw_usart_spi_buf
 .bss.u8g_dev_pcd8544_84x48_sw_spi_buf
                0x00000000008016e2       0x54 ./src/u8g_dev_pcd8544_84x48.o
                0x00000000008016e2                u8g_dev_pcd8544_84x48_sw_spi_buf
 .bss.u8g_dev_pcd8544_84x48_hw_spi_buf
                0x0000000000801736       0x54 ./src/u8g_dev_pcd8544_84x48.o
                0x0000000000801736                u8g_dev_pcd8544_84x48_hw_spi_buf
 .bss.u8g_dev_pcf8812_96x65_sw_spi_buf
                0x000000000080178a       0x60 ./src/u8g_dev_pcf8812_96x65.o
                0x000000000080178a                u8g_dev_pcf8812_96x65_sw_spi_buf
 .bss.u8g_dev_pcf8812_96x65_hw_spi_buf
                0x00000000008017ea       0x60 ./src/u8g_dev_pcf8812_96x65.o
                0x00000000008017ea                u8g_dev_pcf8812_96x65_hw_spi_buf
 .bss.u8g_dev_sbn1661_122x32_buf
                0x000000000080184a       0x7a ./src/u8g_dev_sbn1661_122x32.o
                0x000000000080184a                u8g_dev_sbn1661_122x32_buf
 .bss.u8g_dev_ssd1306_128x32_sw_spi_buf
                0x00000000008018c4       0x80 ./src/u8g_dev_ssd1306_128x32.o
                0x00000000008018c4                u8g_dev_ssd1306_128x32_sw_spi_buf
 .bss.u8g_dev_ssd1306_128x32_hw_spi_buf
                0x0000000000801944       0x80 ./src/u8g_dev_ssd1306_128x32.o
                0x0000000000801944                u8g_dev_ssd1306_128x32_hw_spi_buf
 .bss.u8g_dev_ssd1306_128x32_i2c_buf
                0x00000000008019c4       0x80 ./src/u8g_dev_ssd1306_128x32.o
                0x00000000008019c4                u8g_dev_ssd1306_128x32_i2c_buf
 .bss.u8g_dev_ssd1306_128x32_2x_buf
                0x0000000000801a44      0x100 ./src/u8g_dev_ssd1306_128x32.o
                0x0000000000801a44                u8g_dev_ssd1306_128x32_2x_buf
 .bss.u8g_dev_ssd1306_128x64_sw_spi_buf
                0x0000000000801b44       0x80 ./src/u8g_dev_ssd1306_128x64.o
                0x0000000000801b44                u8g_dev_ssd1306_128x64_sw_spi_buf
 .bss.u8g_dev_ssd1306_128x64_hw_spi_buf
                0x0000000000801bc4       0x80 ./src/u8g_dev_ssd1306_128x64.o
                0x0000000000801bc4                u8g_dev_ssd1306_128x64_hw_spi_buf
 .bss.u8g_dev_ssd1306_128x64_i2c_buf
                0x0000000000801c44       0x80 ./src/u8g_dev_ssd1306_128x64.o
                0x0000000000801c44                u8g_dev_ssd1306_128x64_i2c_buf
 .bss.u8g_dev_ssd1306_adafruit_128x64_sw_spi_buf
                0x0000000000801cc4       0x80 ./src/u8g_dev_ssd1306_128x64.o
                0x0000000000801cc4                u8g_dev_ssd1306_adafruit_128x64_sw_spi_buf
 .bss.u8g_dev_ssd1306_adafruit_128x64_hw_spi_buf
                0x0000000000801d44       0x80 ./src/u8g_dev_ssd1306_128x64.o
                0x0000000000801d44                u8g_dev_ssd1306_adafruit_128x64_hw_spi_buf
 .bss.u8g_dev_ssd1306_adafruit_128x64_i2c_buf
                0x0000000000801dc4       0x80 ./src/u8g_dev_ssd1306_128x64.o
                0x0000000000801dc4                u8g_dev_ssd1306_adafruit_128x64_i2c_buf
 .bss.u8g_dev_ssd1306_128x64_2x_buf
                0x0000000000801e44      0x100 ./src/u8g_dev_ssd1306_128x64.o
                0x0000000000801e44                u8g_dev_ssd1306_128x64_2x_buf
 .bss.u8g_dev_sh1106_128x64_sw_spi_buf
                0x0000000000801f44       0x80 ./src/u8g_dev_ssd1306_128x64.o
                0x0000000000801f44                u8g_dev_sh1106_128x64_sw_spi_buf
 .bss.u8g_dev_sh1106_128x64_hw_spi_buf
                0x0000000000801fc4       0x80 ./src/u8g_dev_ssd1306_128x64.o
                0x0000000000801fc4                u8g_dev_sh1106_128x64_hw_spi_buf
 .bss.u8g_dev_sh1106_128x64_i2c_buf
                0x0000000000802044       0x80 ./src/u8g_dev_ssd1306_128x64.o
                0x0000000000802044                u8g_dev_sh1106_128x64_i2c_buf
 .bss.u8g_dev_sh1106_128x64_2x_buf
                0x00000000008020c4      0x100 ./src/u8g_dev_ssd1306_128x64.o
                0x00000000008020c4                u8g_dev_sh1106_128x64_2x_buf
 .bss.u8g_dev_ssd1306_64x48_sw_spi_buf
                0x00000000008021c4       0x40 ./src/u8g_dev_ssd1306_64x48.o
                0x00000000008021c4                u8g_dev_ssd1306_64x48_sw_spi_buf
 .bss.u8g_dev_ssd1306_64x48_hw_spi_buf
                0x0000000000802204       0x40 ./src/u8g_dev_ssd1306_64x48.o
                0x0000000000802204                u8g_dev_ssd1306_64x48_hw_spi_buf
 .bss.u8g_dev_ssd1306_64x48_i2c_buf
                0x0000000000802244       0x40 ./src/u8g_dev_ssd1306_64x48.o
                0x0000000000802244                u8g_dev_ssd1306_64x48_i2c_buf
 .bss.u8g_dev_ssd1306_64x48_2x_buf
                0x0000000000802284       0x80 ./src/u8g_dev_ssd1306_64x48.o
                0x0000000000802284                u8g_dev_ssd1306_64x48_2x_buf
 .bss.u8g_dev_ssd1309_128x64_hw_spi_buf
                0x0000000000802304       0x80 ./src/u8g_dev_ssd1309_128x64.o
                0x0000000000802304                u8g_dev_ssd1309_128x64_hw_spi_buf
 .bss.u8g_dev_ssd1309_128x64_sw_spi_buf
                0x0000000000802384       0x80 ./src/u8g_dev_ssd1309_128x64.o
                0x0000000000802384                u8g_dev_ssd1309_128x64_sw_spi_buf
 .bss.u8g_dev_ssd1309_128x64_i2c_buf
                0x0000000000802404       0x80 ./src/u8g_dev_ssd1309_128x64.o
                0x0000000000802404                u8g_dev_ssd1309_128x64_i2c_buf
 .bss.u8g_dev_ssd1322_nhd31oled_bw_sw_spi_buf
                0x0000000000802484       0xf8 ./src/u8g_dev_ssd1322_nhd31oled_bw.o
                0x0000000000802484                u8g_dev_ssd1322_nhd31oled_bw_sw_spi_buf
 .bss.u8g_dev_ssd1322_nhd31oled_bw_hw_spi_buf
                0x000000000080257c       0xf8 ./src/u8g_dev_ssd1322_nhd31oled_bw.o
                0x000000000080257c                u8g_dev_ssd1322_nhd31oled_bw_hw_spi_buf
 .bss.u8g_dev_ssd1322_nhd31oled_bw_parallel_buf
                0x0000000000802674       0xf8 ./src/u8g_dev_ssd1322_nhd31oled_bw.o
                0x0000000000802674                u8g_dev_ssd1322_nhd31oled_bw_parallel_buf
 .bss.u8g_dev_ssd1322_nhd31oled_2x_bw_buf
                0x000000000080276c      0x1f0 ./src/u8g_dev_ssd1322_nhd31oled_bw.o
                0x000000000080276c                u8g_dev_ssd1322_nhd31oled_2x_bw_buf
 .bss.u8g_dev_ssd1322_nhd31oled_gr_sw_spi_buf
                0x000000000080295c       0xf8 ./src/u8g_dev_ssd1322_nhd31oled_gr.o
                0x000000000080295c                u8g_dev_ssd1322_nhd31oled_gr_sw_spi_buf
 .bss.u8g_dev_ssd1322_nhd31oled_gr_hw_spi_buf
                0x0000000000802a54       0xf8 ./src/u8g_dev_ssd1322_nhd31oled_gr.o
                0x0000000000802a54                u8g_dev_ssd1322_nhd31oled_gr_hw_spi_buf
 .bss.u8g_dev_ssd1322_nhd31oled_gr_parallel_buf
                0x0000000000802b4c       0xf8 ./src/u8g_dev_ssd1322_nhd31oled_gr.o
                0x0000000000802b4c                u8g_dev_ssd1322_nhd31oled_gr_parallel_buf
 .bss.u8g_dev_ssd1322_nhd31oled_2x_gr_buf
                0x0000000000802c44      0x1f0 ./src/u8g_dev_ssd1322_nhd31oled_gr.o
                0x0000000000802c44                u8g_dev_ssd1322_nhd31oled_2x_gr_buf
 .bss.u8g_dev_ssd1325_nhd27oled_bw_sw_spi_buf
                0x0000000000802e34       0x80 ./src/u8g_dev_ssd1325_nhd27oled_bw_new.o
                0x0000000000802e34                u8g_dev_ssd1325_nhd27oled_bw_sw_spi_buf
 .bss.u8g_dev_ssd1325_nhd27oled_bw_hw_spi_buf
                0x0000000000802eb4       0x80 ./src/u8g_dev_ssd1325_nhd27oled_bw_new.o
                0x0000000000802eb4                u8g_dev_ssd1325_nhd27oled_bw_hw_spi_buf
 .bss.u8g_dev_ssd1325_nhd27oled_bw_parallel_buf
                0x0000000000802f34       0x80 ./src/u8g_dev_ssd1325_nhd27oled_bw_new.o
                0x0000000000802f34                u8g_dev_ssd1325_nhd27oled_bw_parallel_buf
 .bss.u8g_dev_ssd1325_nhd27oled_2x_bw_buf
                0x0000000000802fb4      0x100 ./src/u8g_dev_ssd1325_nhd27oled_bw_new.o
                0x0000000000802fb4                u8g_dev_ssd1325_nhd27oled_2x_bw_buf
 .bss.u8g_dev_ssd1325_nhd27oled_gr_sw_spi_buf
                0x00000000008030b4       0x80 ./src/u8g_dev_ssd1325_nhd27oled_gr_new.o
                0x00000000008030b4                u8g_dev_ssd1325_nhd27oled_gr_sw_spi_buf
 .bss.u8g_dev_ssd1325_nhd27oled_gr_hw_spi_buf
                0x0000000000803134       0x80 ./src/u8g_dev_ssd1325_nhd27oled_gr_new.o
                0x0000000000803134                u8g_dev_ssd1325_nhd27oled_gr_hw_spi_buf
 .bss.u8g_dev_ssd1325_nhd27oled_2x_buf
                0x00000000008031b4      0x100 ./src/u8g_dev_ssd1325_nhd27oled_gr_new.o
                0x00000000008031b4                u8g_dev_ssd1325_nhd27oled_2x_buf
 .bss.u8g_dev_ssd1327_96x96_gr_sw_spi_buf
                0x00000000008032b4       0x60 ./src/u8g_dev_ssd1327_96x96_gr.o
                0x00000000008032b4                u8g_dev_ssd1327_96x96_gr_sw_spi_buf
 .bss.u8g_dev_ssd1327_96x96_gr_hw_spi_buf
                0x0000000000803314       0x60 ./src/u8g_dev_ssd1327_96x96_gr.o
                0x0000000000803314                u8g_dev_ssd1327_96x96_gr_hw_spi_buf
 .bss.u8g_dev_ssd1327_96x96_gr_i2c_buf
                0x0000000000803374       0x60 ./src/u8g_dev_ssd1327_96x96_gr.o
                0x0000000000803374                u8g_dev_ssd1327_96x96_gr_i2c_buf
 .bss.u8g_dev_ssd1327_96x96_2x_buf
                0x00000000008033d4       0xc0 ./src/u8g_dev_ssd1327_96x96_gr.o
                0x00000000008033d4                u8g_dev_ssd1327_96x96_2x_buf
 .bss.buf.3357  0x0000000000803494        0x4 ./src/u8g_dev_ssd1327_96x96_gr.o
 .bss.u8g_ssd1351_stream_bytes
                0x0000000000803498       0x18 ./src/u8g_dev_ssd1351_128x128.o
 .bss.u8g_dev_ssd1351_128x128_r
                0x00000000008034b0      0x100 ./src/u8g_dev_ssd1351_128x128.o
 .bss.u8g_dev_ssd1351_128x128_g
                0x00000000008035b0      0x100 ./src/u8g_dev_ssd1351_128x128.o
 .bss.u8g_dev_ssd1351_128x128_b
                0x00000000008036b0      0x100 ./src/u8g_dev_ssd1351_128x128.o
 .bss.u8g_dev_ssd1351_128x128_byte_buf
                0x00000000008037b0      0x400 ./src/u8g_dev_ssd1351_128x128.o
                0x00000000008037b0                u8g_dev_ssd1351_128x128_byte_buf
 .bss.u8g_dev_ssd1351_128x128_4x_byte_buf
                0x0000000000803bb0     0x1000 ./src/u8g_dev_ssd1351_128x128.o
                0x0000000000803bb0                u8g_dev_ssd1351_128x128_4x_byte_buf
 .bss.u8g_ssd1353_stream_bytes
                0x0000000000804bb0       0x18 ./src/u8g_dev_ssd1353_160x128.o
 .bss.u8g_dev_ssd1353_160x128_r
                0x0000000000804bc8      0x100 ./src/u8g_dev_ssd1353_160x128.o
 .bss.u8g_dev_ssd1353_160x128_g
                0x0000000000804cc8      0x100 ./src/u8g_dev_ssd1353_160x128.o
 .bss.u8g_dev_ssd1353_160x128_b
                0x0000000000804dc8      0x100 ./src/u8g_dev_ssd1353_160x128.o
 .bss.u8g_dev_ssd1353_160x128_byte_buf
                0x0000000000804ec8      0x500 ./src/u8g_dev_ssd1353_160x128.o
                0x0000000000804ec8                u8g_dev_ssd1353_160x128_byte_buf
 .bss.u8g_dev_st7565_64128n_sw_spi_buf
                0x00000000008053c8       0x80 ./src/u8g_dev_st7565_64128n.o
                0x00000000008053c8                u8g_dev_st7565_64128n_sw_spi_buf
 .bss.u8g_dev_st7565_64128n_hw_spi_buf
                0x0000000000805448       0x80 ./src/u8g_dev_st7565_64128n.o
                0x0000000000805448                u8g_dev_st7565_64128n_hw_spi_buf
 .bss.u8g_dev_st7565_64128n_parallel_buf
                0x00000000008054c8       0x80 ./src/u8g_dev_st7565_64128n.o
                0x00000000008054c8                u8g_dev_st7565_64128n_parallel_buf
 .bss.u8g_dev_st7565_64128n_2x_buf
                0x0000000000805548      0x100 ./src/u8g_dev_st7565_64128n.o
                0x0000000000805548                u8g_dev_st7565_64128n_2x_buf
 .bss.u8g_dev_st7565_dogm128_sw_spi_buf
                0x0000000000805648       0x80 ./src/u8g_dev_st7565_dogm128.o
                0x0000000000805648                u8g_dev_st7565_dogm128_sw_spi_buf
 .bss.u8g_dev_st7565_dogm128_hw_spi_buf
                0x00000000008056c8       0x80 ./src/u8g_dev_st7565_dogm128.o
                0x00000000008056c8                u8g_dev_st7565_dogm128_hw_spi_buf
 .bss.u8g_dev_st7565_dogm128_parallel_buf
                0x0000000000805748       0x80 ./src/u8g_dev_st7565_dogm128.o
                0x0000000000805748                u8g_dev_st7565_dogm128_parallel_buf
 .bss.u8g_dev_st7565_dogm128_2x_buf
                0x00000000008057c8      0x100 ./src/u8g_dev_st7565_dogm128.o
                0x00000000008057c8                u8g_dev_st7565_dogm128_2x_buf
 .bss.u8g_dev_st7565_dogm132_sw_spi_buf
                0x00000000008058c8       0x84 ./src/u8g_dev_st7565_dogm132.o
                0x00000000008058c8                u8g_dev_st7565_dogm132_sw_spi_buf
 .bss.u8g_dev_st7565_dogm132_hw_spi_buf
                0x000000000080594c       0x84 ./src/u8g_dev_st7565_dogm132.o
                0x000000000080594c                u8g_dev_st7565_dogm132_hw_spi_buf
 .bss.u8g_dev_st7565_lm6059_sw_spi_buf
                0x00000000008059d0       0x80 ./src/u8g_dev_st7565_lm6059.o
                0x00000000008059d0                u8g_dev_st7565_lm6059_sw_spi_buf
 .bss.u8g_dev_st7565_lm6059_hw_spi_buf
                0x0000000000805a50       0x80 ./src/u8g_dev_st7565_lm6059.o
                0x0000000000805a50                u8g_dev_st7565_lm6059_hw_spi_buf
 .bss.u8g_dev_st7565_lm6059_2x_buf
                0x0000000000805ad0      0x100 ./src/u8g_dev_st7565_lm6059.o
                0x0000000000805ad0                u8g_dev_st7565_lm6059_2x_buf
 .bss.u8g_dev_st7565_lm6063_sw_spi_buf
                0x0000000000805bd0       0x80 ./src/u8g_dev_st7565_lm6063.o
                0x0000000000805bd0                u8g_dev_st7565_lm6063_sw_spi_buf
 .bss.u8g_dev_st7565_lm6063_hw_spi_buf
                0x0000000000805c50       0x80 ./src/u8g_dev_st7565_lm6063.o
                0x0000000000805c50                u8g_dev_st7565_lm6063_hw_spi_buf
 .bss.u8g_dev_st7565_lm6063_2x_buf
                0x0000000000805cd0      0x100 ./src/u8g_dev_st7565_lm6063.o
                0x0000000000805cd0                u8g_dev_st7565_lm6063_2x_buf
 .bss.u8g_dev_st7565_nhd_c12832_sw_spi_buf
                0x0000000000805dd0       0x80 ./src/u8g_dev_st7565_nhd_c12832.o
                0x0000000000805dd0                u8g_dev_st7565_nhd_c12832_sw_spi_buf
 .bss.u8g_dev_st7565_nhd_c12832_hw_spi_buf
                0x0000000000805e50       0x80 ./src/u8g_dev_st7565_nhd_c12832.o
                0x0000000000805e50                u8g_dev_st7565_nhd_c12832_hw_spi_buf
 .bss.u8g_dev_st7565_nhd_c12832_parallel_buf
                0x0000000000805ed0       0x80 ./src/u8g_dev_st7565_nhd_c12832.o
                0x0000000000805ed0                u8g_dev_st7565_nhd_c12832_parallel_buf
 .bss.u8g_dev_st7565_nhd_c12832_hw_usart_spi_buf
                0x0000000000805f50       0x80 ./src/u8g_dev_st7565_nhd_c12832.o
                0x0000000000805f50                u8g_dev_st7565_nhd_c12832_hw_usart_spi_buf
 .bss.u8g_dev_st7565_nhd_c12864_sw_spi_buf
                0x0000000000805fd0       0x80 ./src/u8g_dev_st7565_nhd_c12864.o
                0x0000000000805fd0                u8g_dev_st7565_nhd_c12864_sw_spi_buf
 .bss.u8g_dev_st7565_nhd_c12864_hw_spi_buf
                0x0000000000806050       0x80 ./src/u8g_dev_st7565_nhd_c12864.o
                0x0000000000806050                u8g_dev_st7565_nhd_c12864_hw_spi_buf
 .bss.u8g_dev_st7565_nhd_c12864_2x_buf
                0x00000000008060d0      0x100 ./src/u8g_dev_st7565_nhd_c12864.o
                0x00000000008060d0                u8g_dev_st7565_nhd_c12864_2x_buf
 .bss.u8g_st7687_c144mvgd_8h8_buf
                0x00000000008061d0      0x400 ./src/u8g_dev_st7687_c144mvgd.o
                0x00000000008061d0                u8g_st7687_c144mvgd_8h8_buf
 .bss.u8g_dev_st7920_128x64_sw_spi_buf
                0x00000000008065d0       0x80 ./src/u8g_dev_st7920_128x64.o
                0x00000000008065d0                u8g_dev_st7920_128x64_sw_spi_buf
 .bss.u8g_dev_st7920_128x64_hw_spi_buf
                0x0000000000806650       0x80 ./src/u8g_dev_st7920_128x64.o
                0x0000000000806650                u8g_dev_st7920_128x64_hw_spi_buf
 .bss.u8g_dev_st7920_128x64_8bit_buf
                0x00000000008066d0       0x80 ./src/u8g_dev_st7920_128x64.o
                0x00000000008066d0                u8g_dev_st7920_128x64_8bit_buf
 .bss.u8g_dev_st7920_128x64_custom_buf
                0x0000000000806750       0x80 ./src/u8g_dev_st7920_128x64.o
                0x0000000000806750                u8g_dev_st7920_128x64_custom_buf
 .bss.u8g_dev_st7920_128x64_4x_buf
                0x00000000008067d0      0x200 ./src/u8g_dev_st7920_128x64.o
                0x00000000008067d0                u8g_dev_st7920_128x64_4x_buf
 .bss.u8g_dev_st7920_192x32_sw_spi_buf
                0x00000000008069d0       0xc0 ./src/u8g_dev_st7920_192x32.o
                0x00000000008069d0                u8g_dev_st7920_192x32_sw_spi_buf
 .bss.u8g_dev_st7920_192x32_hw_spi_buf
                0x0000000000806a90       0xc0 ./src/u8g_dev_st7920_192x32.o
                0x0000000000806a90                u8g_dev_st7920_192x32_hw_spi_buf
 .bss.u8g_dev_st7920_192x32_8bit_buf
                0x0000000000806b50       0xc0 ./src/u8g_dev_st7920_192x32.o
                0x0000000000806b50                u8g_dev_st7920_192x32_8bit_buf
 .bss.u8g_dev_st7920_192x32_4x_buf
                0x0000000000806c10      0x300 ./src/u8g_dev_st7920_192x32.o
                0x0000000000806c10                u8g_dev_st7920_192x32_4x_buf
 .bss.u8g_dev_st7920_202x32_sw_spi_buf
                0x0000000000806f10       0xca ./src/u8g_dev_st7920_202x32.o
                0x0000000000806f10                u8g_dev_st7920_202x32_sw_spi_buf
 .bss.u8g_dev_st7920_202x32_hw_spi_buf
                0x0000000000806fda       0xca ./src/u8g_dev_st7920_202x32.o
                0x0000000000806fda                u8g_dev_st7920_202x32_hw_spi_buf
 .bss.u8g_dev_st7920_202x32_8bit_buf
                0x00000000008070a4       0xca ./src/u8g_dev_st7920_202x32.o
                0x00000000008070a4                u8g_dev_st7920_202x32_8bit_buf
 .bss.u8g_dev_st7920_202x32_4x_buf
                0x000000000080716e      0x328 ./src/u8g_dev_st7920_202x32.o
                0x000000000080716e                u8g_dev_st7920_202x32_4x_buf
 .bss.u8g_dev_t6963_128x128_2x_bw_buf
                0x0000000000807496      0x100 ./src/u8g_dev_t6963_128x128.o
                0x0000000000807496                u8g_dev_t6963_128x128_2x_bw_buf
 .bss.u8g_dev_t6963_128x64_2x_bw_buf
                0x0000000000807596      0x100 ./src/u8g_dev_t6963_128x64.o
                0x0000000000807596                u8g_dev_t6963_128x64_2x_bw_buf
 .bss.u8g_dev_t6963_240x128_2x_bw_buf
                0x0000000000807696      0x1e0 ./src/u8g_dev_t6963_240x128.o
                0x0000000000807696                u8g_dev_t6963_240x128_2x_bw_buf
 .bss.u8g_dev_t6963_240x64_2x_bw_buf
                0x0000000000807876      0x1e0 ./src/u8g_dev_t6963_240x64.o
                0x0000000000807876                u8g_dev_t6963_240x64_2x_bw_buf
 .bss.u8g_dev_tls8204_84x48_sw_spi_buf
                0x0000000000807a56       0x54 ./src/u8g_dev_tls8204_84x48.o
                0x0000000000807a56                u8g_dev_tls8204_84x48_sw_spi_buf
 .bss.u8g_dev_uc1601_c128032_sw_spi_buf
                0x0000000000807aaa       0x80 ./src/u8g_dev_uc1601_c128032.o
                0x0000000000807aaa                u8g_dev_uc1601_c128032_sw_spi_buf
 .bss.u8g_dev_uc1601_c128032_hw_spi_buf
                0x0000000000807b2a       0x80 ./src/u8g_dev_uc1601_c128032.o
                0x0000000000807b2a                u8g_dev_uc1601_c128032_hw_spi_buf
 .bss.u8g_dev_uc1601_c128032_2x_buf
                0x0000000000807baa      0x100 ./src/u8g_dev_uc1601_c128032.o
                0x0000000000807baa                u8g_dev_uc1601_c128032_2x_buf
 .bss.u8g_dev_uc1608_240x128_sw_spi_buf
                0x0000000000807caa       0xf0 ./src/u8g_dev_uc1608_240x128.o
                0x0000000000807caa                u8g_dev_uc1608_240x128_sw_spi_buf
 .bss.u8g_dev_uc1608_240x128_hw_spi_buf
                0x0000000000807d9a       0xf0 ./src/u8g_dev_uc1608_240x128.o
                0x0000000000807d9a                u8g_dev_uc1608_240x128_hw_spi_buf
 .bss.u8g_dev_uc1608_240x128_2x_buf
                0x0000000000807e8a      0x1e0 ./src/u8g_dev_uc1608_240x128.o
                0x0000000000807e8a                u8g_dev_uc1608_240x128_2x_buf
 .bss.u8g_dev_uc1608_240x64_sw_spi_buf
                0x000000000080806a       0xf0 ./src/u8g_dev_uc1608_240x64.o
                0x000000000080806a                u8g_dev_uc1608_240x64_sw_spi_buf
 .bss.u8g_dev_uc1608_240x64_hw_spi_buf
                0x000000000080815a       0xf0 ./src/u8g_dev_uc1608_240x64.o
                0x000000000080815a                u8g_dev_uc1608_240x64_hw_spi_buf
 .bss.u8g_dev_uc1608_240x64_2x_buf
                0x000000000080824a      0x1e0 ./src/u8g_dev_uc1608_240x64.o
                0x000000000080824a                u8g_dev_uc1608_240x64_2x_buf
 .bss.u8g_dev_uc1610_dogxl160_bw_sw_spi_buf
                0x000000000080842a       0xa0 ./src/u8g_dev_uc1610_dogxl160.o
                0x000000000080842a                u8g_dev_uc1610_dogxl160_bw_sw_spi_buf
 .bss.u8g_dev_uc1610_dogxl160_bw_hw_spi_buf
                0x00000000008084ca       0xa0 ./src/u8g_dev_uc1610_dogxl160.o
                0x00000000008084ca                u8g_dev_uc1610_dogxl160_bw_hw_spi_buf
 .bss.u8g_dev_uc1610_dogxl160_gr_sw_spi_buf
                0x000000000080856a       0xa0 ./src/u8g_dev_uc1610_dogxl160.o
                0x000000000080856a                u8g_dev_uc1610_dogxl160_gr_sw_spi_buf
 .bss.u8g_dev_uc1610_dogxl160_gr_hw_spi_buf
                0x000000000080860a       0xa0 ./src/u8g_dev_uc1610_dogxl160.o
                0x000000000080860a                u8g_dev_uc1610_dogxl160_gr_hw_spi_buf
 .bss.u8g_dev_uc1610_dogxl160_2x_bw_buf
                0x00000000008086aa      0x140 ./src/u8g_dev_uc1610_dogxl160.o
                0x00000000008086aa                u8g_dev_uc1610_dogxl160_2x_bw_buf
 .bss.u8g_dev_uc1610_dogxl160_2x_gr_buf
                0x00000000008087ea      0x140 ./src/u8g_dev_uc1610_dogxl160.o
                0x00000000008087ea                u8g_dev_uc1610_dogxl160_2x_gr_buf
 .bss.u8g_dev_uc1611_dogm240_i2c_buf
                0x000000000080892a       0xf0 ./src/u8g_dev_uc1611_dogm240.o
                0x000000000080892a                u8g_dev_uc1611_dogm240_i2c_buf
 .bss.u8g_dev_uc1611_dogm240_sw_spi_buf
                0x0000000000808a1a       0xf0 ./src/u8g_dev_uc1611_dogm240.o
                0x0000000000808a1a                u8g_dev_uc1611_dogm240_sw_spi_buf
 .bss.u8g_dev_uc1611_dogm240_hw_spi_buf
                0x0000000000808b0a       0xf0 ./src/u8g_dev_uc1611_dogm240.o
                0x0000000000808b0a                u8g_dev_uc1611_dogm240_hw_spi_buf
 .bss.u8g_dev_uc1611_dogm240_8bit_buf
                0x0000000000808bfa       0xf0 ./src/u8g_dev_uc1611_dogm240.o
                0x0000000000808bfa                u8g_dev_uc1611_dogm240_8bit_buf
 .bss.u8g_dev_uc1611_dogxl240_i2c_buf
                0x0000000000808cea       0xf0 ./src/u8g_dev_uc1611_dogxl240.o
                0x0000000000808cea                u8g_dev_uc1611_dogxl240_i2c_buf
 .bss.u8g_dev_uc1611_dogxl240_sw_spi_buf
                0x0000000000808dda       0xf0 ./src/u8g_dev_uc1611_dogxl240.o
                0x0000000000808dda                u8g_dev_uc1611_dogxl240_sw_spi_buf
 .bss.u8g_dev_uc1611_dogxl240_hw_spi_buf
                0x0000000000808eca       0xf0 ./src/u8g_dev_uc1611_dogxl240.o
                0x0000000000808eca                u8g_dev_uc1611_dogxl240_hw_spi_buf
 .bss.u8g_dev_uc1611_dogxl240_8bit_buf
                0x0000000000808fba       0xf0 ./src/u8g_dev_uc1611_dogxl240.o
                0x0000000000808fba                u8g_dev_uc1611_dogxl240_8bit_buf
 .bss.u8g_dev_uc1701_dogs102_sw_spi_buf
                0x00000000008090aa       0x66 ./src/u8g_dev_uc1701_dogs102.o
                0x00000000008090aa                u8g_dev_uc1701_dogs102_sw_spi_buf
 .bss.u8g_dev_uc1701_dogs102_hw_spi_buf
                0x0000000000809110       0x66 ./src/u8g_dev_uc1701_dogs102.o
                0x0000000000809110                u8g_dev_uc1701_dogs102_hw_spi_buf
 .bss.u8g_dev_uc1701_dogs102_2x_buf
                0x0000000000809176       0xcc ./src/u8g_dev_uc1701_dogs102.o
                0x0000000000809176                u8g_dev_uc1701_dogs102_2x_buf
 .bss.u8g_dev_uc1701_mini12864_sw_spi_buf
                0x0000000000809242       0x80 ./src/u8g_dev_uc1701_mini12864.o
                0x0000000000809242                u8g_dev_uc1701_mini12864_sw_spi_buf
 .bss.u8g_dev_uc1701_mini12864_hw_spi_buf
                0x00000000008092c2       0x80 ./src/u8g_dev_uc1701_mini12864.o
                0x00000000008092c2                u8g_dev_uc1701_mini12864_hw_spi_buf
 .bss.u8g_dev_uc1701_mini12864_2x_buf
                0x0000000000809342      0x100 ./src/u8g_dev_uc1701_mini12864.o
                0x0000000000809342                u8g_dev_uc1701_mini12864_2x_buf
 .bss.u8g_state_avr_spi_memory
                0x0000000000809442        0x2 ./src/u8g_state.o
 .bss.buf.3352  0x0000000000809444        0x6 ./src/u8g_u16toa.o
 .bss.buf.3353  0x000000000080944a        0x4 ./src/u8g_u8toa.o
 .bss.u8g_vs_cnt
                0x000000000080944e        0x1 ./src/u8g_virtual_screen.o
                0x000000000080944e                u8g_vs_cnt
 *(COMMON)
 COMMON         0x000000000080944f       0xee ./src/chessengine.o
                0x000000000080944f                lrc_u8g
                0x0000000000809451                chess_low_edge
                0x0000000000809452                lrc_obj
 COMMON         0x000000000080953d        0x2 ./src/u8g_dev_flipdisc_2x7.o
                0x000000000080953d                u8g_write_flip_disc_matrix
 COMMON         0x000000000080953f       0x80 ./src/u8g_dev_gprof.o
                0x000000000080953f                u8g_pb_dev_gprof_buf
 COMMON         0x00000000008095bf       0x42 ./src/u8g_polygon.o
                0x00000000008095bf                u8g_pg
 COMMON         0x0000000000809601        0x1 ./src/u8g_state.o
                0x0000000000809601                global_SREG_backup
 COMMON         0x0000000000809602       0x13 ./src/u8g_virtual_screen.o
                0x0000000000809602                u8g_vs_width
                0x0000000000809603                u8g_vs_height
                0x0000000000809604                u8g_vs_list
                0x0000000000809614                u8g_vs_current
 COMMON         0x0000000000809615       0x37 ./main.o
                0x0000000000809615                u8g
                0x000000000080964c                PROVIDE (__bss_end, .)
                0x000000000015f5fc                __data_load_start = LOADADDR (.data)
                0x000000000015ffa4                __data_load_end = (__data_load_start + SIZEOF (.data))

.noinit         0x000000000080964c        0x0
                [!provide]                        PROVIDE (__noinit_start, .)
 *(.noinit*)
                [!provide]                        PROVIDE (__noinit_end, .)
                0x000000000080964c                _end = .
                [!provide]                        PROVIDE (__heap_start, .)

.eeprom         0x0000000000810000        0x0
 *(.eeprom*)
                0x0000000000810000                __eeprom_end = .

.fuse
 *(.fuse)
 *(.lfuse)
 *(.hfuse)
 *(.efuse)

.lock
 *(.lock*)

.signature
 *(.signature*)

.stab           0x0000000000000000    0x38ae4
 *(.stab)
 .stab          0x0000000000000000     0x3b4c ./src/chessengine.o
 .stab          0x0000000000003b4c      0xb04 ./src/u8g_bitmap.o
                                        0xe70 (size before relaxing)
 .stab          0x0000000000004650      0xa2c ./src/u8g_circle.o
                                        0xd98 (size before relaxing)
 .stab          0x000000000000507c      0x528 ./src/u8g_clip.o
                                        0x894 (size before relaxing)
 .stab          0x00000000000055a4      0x7ec ./src/u8g_com_api.o
                                        0xb58 (size before relaxing)
 .stab          0x0000000000005d90      0x5ac ./src/u8g_com_api_16gr.o
                                        0x918 (size before relaxing)
 .stab          0x000000000000633c      0x33c ./src/u8g_com_arduino_attiny85_hw_spi.o
                                        0x6a8 (size before relaxing)
 .stab          0x0000000000006678      0x2dc ./src/u8g_com_arduino_common.o
                                        0x648 (size before relaxing)
 .stab          0x0000000000006954      0x33c ./src/u8g_com_arduino_fast_parallel.o
                                        0x6a8 (size before relaxing)
 .stab          0x0000000000006c90      0x33c ./src/u8g_com_arduino_hw_spi.o
                                        0x6a8 (size before relaxing)
 .stab          0x0000000000006fcc      0x33c ./src/u8g_com_arduino_hw_usart_spi.o
                                        0x6a8 (size before relaxing)
 .stab          0x0000000000007308      0x33c ./src/u8g_com_arduino_no_en_parallel.o
                                        0x6a8 (size before relaxing)
 .stab          0x0000000000007644      0x33c ./src/u8g_com_arduino_parallel.o
                                        0x6a8 (size before relaxing)
 .stab          0x0000000000007980      0x33c ./src/u8g_com_arduino_port_d_wr.o
                                        0x6a8 (size before relaxing)
 .stab          0x0000000000007cbc      0x624 ./src/u8g_com_arduino_ssd_i2c.o
                                        0x990 (size before relaxing)
 .stab          0x00000000000082e0      0x33c ./src/u8g_com_arduino_st7920_custom.o
                                        0x6a8 (size before relaxing)
 .stab          0x000000000000861c      0x33c ./src/u8g_com_arduino_st7920_hw_spi.o
                                        0x6a8 (size before relaxing)
 .stab          0x0000000000008958      0x33c ./src/u8g_com_arduino_st7920_spi.o
                                        0x6a8 (size before relaxing)
 .stab          0x0000000000008c94      0x33c ./src/u8g_com_arduino_std_sw_spi.o
                                        0x6a8 (size before relaxing)
 .stab          0x0000000000008fd0      0x33c ./src/u8g_com_arduino_sw_spi.o
                                        0x6a8 (size before relaxing)
 .stab          0x000000000000930c      0x33c ./src/u8g_com_arduino_t6963.o
                                        0x6a8 (size before relaxing)
 .stab          0x0000000000009648      0x60c ./src/u8g_com_arduino_uc_i2c.o
                                        0x978 (size before relaxing)
 .stab          0x0000000000009c54      0x600 ./src/u8g_com_atmega_hw_spi.o
                                        0x96c (size before relaxing)
 .stab          0x000000000000a254      0x75c ./src/u8g_com_atmega_parallel.o
                                        0xac8 (size before relaxing)
 .stab          0x000000000000a9b0      0x6d8 ./src/u8g_com_atmega_st7920_hw_spi.o
                                        0xa44 (size before relaxing)
 .stab          0x000000000000b088      0x72c ./src/u8g_com_atmega_st7920_spi.o
                                        0xa98 (size before relaxing)
 .stab          0x000000000000b7b4      0x63c ./src/u8g_com_atmega_sw_spi.o
                                        0x9a8 (size before relaxing)
 .stab          0x000000000000bdf0      0x78c ./src/u8g_com_i2c.o
                                        0xaf8 (size before relaxing)
 .stab          0x000000000000c57c      0x6e4 ./src/u8g_com_io.o
                                        0xa50 (size before relaxing)
 .stab          0x000000000000cc60      0x33c ./src/u8g_com_msp430_hw_spi.o
                                        0x6a8 (size before relaxing)
 .stab          0x000000000000cf9c      0x348 ./src/u8g_com_null.o
                                        0x6b4 (size before relaxing)
 .stab          0x000000000000d2e4      0x33c ./src/u8g_com_raspberrypi_hw_spi.o
                                        0x6a8 (size before relaxing)
 .stab          0x000000000000d620      0x2dc ./src/u8g_com_raspberrypi_ssd_i2c.o
                                        0x648 (size before relaxing)
 .stab          0x000000000000d8fc      0x654 ./src/u8g_com_std_sw_spi.o
                                        0x9c0 (size before relaxing)
 .stab          0x000000000000df50      0x5a0 ./src/u8g_cursor.o
                                        0x90c (size before relaxing)
 .stab          0x000000000000e4f0      0x3c0 ./src/u8g_delay.o
                                        0x72c (size before relaxing)
 .stab          0x000000000000e8b0      0x954 ./src/u8g_dev_a2_micro_printer.o
                                        0xcc0 (size before relaxing)
 .stab          0x000000000000f204      0x42c ./src/u8g_dev_flipdisc_2x7.o
                                        0x798 (size before relaxing)
 .stab          0x000000000000f630      0x408 ./src/u8g_dev_gprof.o
                                        0x774 (size before relaxing)
 .stab          0x000000000000fa38      0x4b0 ./src/u8g_dev_ht1632.o
                                        0x81c (size before relaxing)
 .stab          0x000000000000fee8      0x660 ./src/u8g_dev_ili9325d_320x240.o
                                        0x9cc (size before relaxing)
 .stab          0x0000000000010548      0x4b0 ./src/u8g_dev_ks0108_128x64.o
                                        0x81c (size before relaxing)
 .stab          0x00000000000109f8      0x534 ./src/u8g_dev_lc7981_160x80.o
                                        0x8a0 (size before relaxing)
 .stab          0x0000000000010f2c      0x534 ./src/u8g_dev_lc7981_240x128.o
                                        0x8a0 (size before relaxing)
 .stab          0x0000000000011460      0x534 ./src/u8g_dev_lc7981_240x64.o
                                        0x8a0 (size before relaxing)
 .stab          0x0000000000011994      0x534 ./src/u8g_dev_lc7981_320x64.o
                                        0x8a0 (size before relaxing)
 .stab          0x0000000000011ec8      0x558 ./src/u8g_dev_ld7032_60x32.o
                                        0x8c4 (size before relaxing)
 .stab          0x0000000000012420      0x348 ./src/u8g_dev_null.o
                                        0x6b4 (size before relaxing)
 .stab          0x0000000000012768      0x510 ./src/u8g_dev_pcd8544_84x48.o
                                        0x87c (size before relaxing)
 .stab          0x0000000000012c78      0x4bc ./src/u8g_dev_pcf8812_96x65.o
                                        0x828 (size before relaxing)
 .stab          0x0000000000013134      0x48c ./src/u8g_dev_sbn1661_122x32.o
                                        0x7f8 (size before relaxing)
 .stab          0x00000000000135c0      0x6c0 ./src/u8g_dev_ssd1306_128x32.o
                                        0xa2c (size before relaxing)
 .stab          0x0000000000013c80      0xc24 ./src/u8g_dev_ssd1306_128x64.o
                                        0xf90 (size before relaxing)
 .stab          0x00000000000148a4      0x69c ./src/u8g_dev_ssd1306_64x48.o
                                        0xa08 (size before relaxing)
 .stab          0x0000000000014f40      0x51c ./src/u8g_dev_ssd1309_128x64.o
                                        0x888 (size before relaxing)
 .stab          0x000000000001545c      0x90c ./src/u8g_dev_ssd1322_nhd31oled_bw.o
                                        0xc78 (size before relaxing)
 .stab          0x0000000000015d68      0x90c ./src/u8g_dev_ssd1322_nhd31oled_gr.o
                                        0xc78 (size before relaxing)
 .stab          0x0000000000016674      0x27c ./src/u8g_dev_ssd1325_nhd27oled_bw.o
                                        0x288 (size before relaxing)
 .stab          0x00000000000168f0      0x864 ./src/u8g_dev_ssd1325_nhd27oled_bw_new.o
                                        0xbd0 (size before relaxing)
 .stab          0x0000000000017154      0x27c ./src/u8g_dev_ssd1325_nhd27oled_gr.o
                                        0x288 (size before relaxing)
 .stab          0x00000000000173d0      0x834 ./src/u8g_dev_ssd1325_nhd27oled_gr_new.o
                                        0xba0 (size before relaxing)
 .stab          0x0000000000017c04      0xb28 ./src/u8g_dev_ssd1327_96x96_gr.o
                                        0xe94 (size before relaxing)
 .stab          0x000000000001872c      0xff0 ./src/u8g_dev_ssd1351_128x128.o
                                       0x135c (size before relaxing)
 .stab          0x000000000001971c      0xb28 ./src/u8g_dev_ssd1353_160x128.o
                                        0xe94 (size before relaxing)
 .stab          0x000000000001a244      0x72c ./src/u8g_dev_st7565_64128n.o
                                        0xa98 (size before relaxing)
 .stab          0x000000000001a970      0x72c ./src/u8g_dev_st7565_dogm128.o
                                        0xa98 (size before relaxing)
 .stab          0x000000000001b09c      0x4f8 ./src/u8g_dev_st7565_dogm132.o
                                        0x864 (size before relaxing)
 .stab          0x000000000001b594      0x6fc ./src/u8g_dev_st7565_lm6059.o
                                        0xa68 (size before relaxing)
 .stab          0x000000000001bc90      0x6fc ./src/u8g_dev_st7565_lm6063.o
                                        0xa68 (size before relaxing)
 .stab          0x000000000001c38c      0x540 ./src/u8g_dev_st7565_nhd_c12832.o
                                        0x8ac (size before relaxing)
 .stab          0x000000000001c8cc      0x6fc ./src/u8g_dev_st7565_nhd_c12864.o
                                        0xa68 (size before relaxing)
 .stab          0x000000000001cfc8      0x66c ./src/u8g_dev_st7687_c144mvgd.o
                                        0x9d8 (size before relaxing)
 .stab          0x000000000001d634      0x780 ./src/u8g_dev_st7920_128x64.o
                                        0xaec (size before relaxing)
 .stab          0x000000000001ddb4      0x708 ./src/u8g_dev_st7920_192x32.o
                                        0xa74 (size before relaxing)
 .stab          0x000000000001e4bc      0x708 ./src/u8g_dev_st7920_202x32.o
                                        0xa74 (size before relaxing)
 .stab          0x000000000001ebc4      0x4f8 ./src/u8g_dev_t6963_128x128.o
                                        0x864 (size before relaxing)
 .stab          0x000000000001f0bc      0x4f8 ./src/u8g_dev_t6963_128x64.o
                                        0x864 (size before relaxing)
 .stab          0x000000000001f5b4      0x4f8 ./src/u8g_dev_t6963_240x128.o
                                        0x864 (size before relaxing)
 .stab          0x000000000001faac      0x4f8 ./src/u8g_dev_t6963_240x64.o
                                        0x864 (size before relaxing)
 .stab          0x000000000001ffa4      0x4a4 ./src/u8g_dev_tls8204_84x48.o
                                        0x810 (size before relaxing)
 .stab          0x0000000000020448      0x6fc ./src/u8g_dev_uc1601_c128032.o
                                        0xa68 (size before relaxing)
 .stab          0x0000000000020b44      0x66c ./src/u8g_dev_uc1608_240x128.o
                                        0x9d8 (size before relaxing)
 .stab          0x00000000000211b0      0x66c ./src/u8g_dev_uc1608_240x64.o
                                        0x9d8 (size before relaxing)
 .stab          0x000000000002181c      0xc78 ./src/u8g_dev_uc1610_dogxl160.o
                                        0xfe4 (size before relaxing)
 .stab          0x0000000000022494      0x54c ./src/u8g_dev_uc1611_dogm240.o
                                        0x8b8 (size before relaxing)
 .stab          0x00000000000229e0      0x54c ./src/u8g_dev_uc1611_dogxl240.o
                                        0x8b8 (size before relaxing)
 .stab          0x0000000000022f2c      0x66c ./src/u8g_dev_uc1701_dogs102.o
                                        0x9d8 (size before relaxing)
 .stab          0x0000000000023598      0x66c ./src/u8g_dev_uc1701_mini12864.o
                                        0x9d8 (size before relaxing)
 .stab          0x0000000000023c04      0xea0 ./src/u8g_ellipse.o
                                       0x120c (size before relaxing)
 .stab          0x0000000000024aa4     0x3bc4 ./src/u8g_font.o
                                       0x3f30 (size before relaxing)
 .stab          0x0000000000028668     0x1578 ./src/u8g_font_data.o
                                       0x18e4 (size before relaxing)
 .stab          0x0000000000029be0      0x534 ./src/u8g_line.o
                                        0x8a0 (size before relaxing)
 .stab          0x000000000002a114     0x1ae8 ./src/u8g_ll_api.o
                                       0x1e54 (size before relaxing)
 .stab          0x000000000002bbfc      0x48c ./src/u8g_page.o
                                        0x7f8 (size before relaxing)
 .stab          0x000000000002c088      0x7bc ./src/u8g_pb.o
                                        0xb28 (size before relaxing)
 .stab          0x000000000002c844      0x918 ./src/u8g_pb14v1.o
                                        0xc84 (size before relaxing)
 .stab          0x000000000002d15c      0x960 ./src/u8g_pb16h1.o
                                        0xccc (size before relaxing)
 .stab          0x000000000002dabc      0x990 ./src/u8g_pb16h2.o
                                        0xcfc (size before relaxing)
 .stab          0x000000000002e44c      0x918 ./src/u8g_pb16v1.o
                                        0xc84 (size before relaxing)
 .stab          0x000000000002ed64      0x810 ./src/u8g_pb16v2.o
                                        0xb7c (size before relaxing)
 .stab          0x000000000002f574      0x93c ./src/u8g_pb32h1.o
                                        0xca8 (size before relaxing)
 .stab          0x000000000002feb0      0x8a0 ./src/u8g_pb8h1.o
                                        0xc0c (size before relaxing)
 .stab          0x0000000000030750      0x894 ./src/u8g_pb8h1f.o
                                        0xc00 (size before relaxing)
 .stab          0x0000000000030fe4      0x7b0 ./src/u8g_pb8h2.o
                                        0xb1c (size before relaxing)
 .stab          0x0000000000031794      0x810 ./src/u8g_pb8h8.o
                                        0xb7c (size before relaxing)
 .stab          0x0000000000031fa4      0x864 ./src/u8g_pb8v1.o
                                        0xbd0 (size before relaxing)
 .stab          0x0000000000032808      0x750 ./src/u8g_pb8v2.o
                                        0xabc (size before relaxing)
 .stab          0x0000000000032f58      0x858 ./src/u8g_pbxh16.o
                                        0xbc4 (size before relaxing)
 .stab          0x00000000000337b0      0xaec ./src/u8g_pbxh24.o
                                        0xe58 (size before relaxing)
 .stab          0x000000000003429c      0xe58 ./src/u8g_polygon.o
                                       0x11c4 (size before relaxing)
 .stab          0x00000000000350f4      0xcd8 ./src/u8g_rect.o
                                       0x1044 (size before relaxing)
 .stab          0x0000000000035dcc      0xcb4 ./src/u8g_rot.o
                                       0x1020 (size before relaxing)
 .stab          0x0000000000036a80      0x888 ./src/u8g_scale.o
                                        0xbf4 (size before relaxing)
 .stab          0x0000000000037308      0x42c ./src/u8g_state.o
                                        0x798 (size before relaxing)
 .stab          0x0000000000037734      0x474 ./src/u8g_u16toa.o
                                        0x7e0 (size before relaxing)
 .stab          0x0000000000037ba8      0x474 ./src/u8g_u8toa.o
                                        0x7e0 (size before relaxing)
 .stab          0x000000000003801c      0x6f0 ./src/u8g_virtual_screen.o
                                        0xa5c (size before relaxing)
 .stab          0x000000000003870c      0x3d8 ./main.o
                                        0x738 (size before relaxing)

.stabstr        0x0000000000000000    0x13369
 *(.stabstr)
 .stabstr       0x0000000000000000    0x13369 ./src/chessengine.o

.stab.excl
 *(.stab.excl)

.stab.exclstr
 *(.stab.exclstr)

.stab.index
 *(.stab.index)

.stab.indexstr
 *(.stab.indexstr)

.comment        0x0000000000000000       0x11
 *(.comment)
 .comment       0x0000000000000000       0x11 ./src/chessengine.o
                                         0x12 (size before relaxing)
 .comment       0x0000000000000011       0x12 ./src/u8g_bitmap.o
 .comment       0x0000000000000011       0x12 ./src/u8g_circle.o
 .comment       0x0000000000000011       0x12 ./src/u8g_clip.o
 .comment       0x0000000000000011       0x12 ./src/u8g_com_api.o
 .comment       0x0000000000000011       0x12 ./src/u8g_com_api_16gr.o
 .comment       0x0000000000000011       0x12 ./src/u8g_com_arduino_attiny85_hw_spi.o
 .comment       0x0000000000000011       0x12 ./src/u8g_com_arduino_common.o
 .comment       0x0000000000000011       0x12 ./src/u8g_com_arduino_fast_parallel.o
 .comment       0x0000000000000011       0x12 ./src/u8g_com_arduino_hw_spi.o
 .comment       0x0000000000000011       0x12 ./src/u8g_com_arduino_hw_usart_spi.o
 .comment       0x0000000000000011       0x12 ./src/u8g_com_arduino_no_en_parallel.o
 .comment       0x0000000000000011       0x12 ./src/u8g_com_arduino_parallel.o
 .comment       0x0000000000000011       0x12 ./src/u8g_com_arduino_port_d_wr.o
 .comment       0x0000000000000011       0x12 ./src/u8g_com_arduino_ssd_i2c.o
 .comment       0x0000000000000011       0x12 ./src/u8g_com_arduino_st7920_custom.o
 .comment       0x0000000000000011       0x12 ./src/u8g_com_arduino_st7920_hw_spi.o
 .comment       0x0000000000000011       0x12 ./src/u8g_com_arduino_st7920_spi.o
 .comment       0x0000000000000011       0x12 ./src/u8g_com_arduino_std_sw_spi.o
 .comment       0x0000000000000011       0x12 ./src/u8g_com_arduino_sw_spi.o
 .comment       0x0000000000000011       0x12 ./src/u8g_com_arduino_t6963.o
 .comment       0x0000000000000011       0x12 ./src/u8g_com_arduino_uc_i2c.o
 .comment       0x0000000000000011       0x12 ./src/u8g_com_atmega_hw_spi.o
 .comment       0x0000000000000011       0x12 ./src/u8g_com_atmega_parallel.o
 .comment       0x0000000000000011       0x12 ./src/u8g_com_atmega_st7920_hw_spi.o
 .comment       0x0000000000000011       0x12 ./src/u8g_com_atmega_st7920_spi.o
 .comment       0x0000000000000011       0x12 ./src/u8g_com_atmega_sw_spi.o
 .comment       0x0000000000000011       0x12 ./src/u8g_com_i2c.o
 .comment       0x0000000000000011       0x12 ./src/u8g_com_io.o
 .comment       0x0000000000000011       0x12 ./src/u8g_com_msp430_hw_spi.o
 .comment       0x0000000000000011       0x12 ./src/u8g_com_null.o
 .comment       0x0000000000000011       0x12 ./src/u8g_com_raspberrypi_hw_spi.o
 .comment       0x0000000000000011       0x12 ./src/u8g_com_raspberrypi_ssd_i2c.o
 .comment       0x0000000000000011       0x12 ./src/u8g_com_std_sw_spi.o
 .comment       0x0000000000000011       0x12 ./src/u8g_cursor.o
 .comment       0x0000000000000011       0x12 ./src/u8g_delay.o
 .comment       0x0000000000000011       0x12 ./src/u8g_dev_a2_micro_printer.o
 .comment       0x0000000000000011       0x12 ./src/u8g_dev_flipdisc_2x7.o
 .comment       0x0000000000000011       0x12 ./src/u8g_dev_gprof.o
 .comment       0x0000000000000011       0x12 ./src/u8g_dev_ht1632.o
 .comment       0x0000000000000011       0x12 ./src/u8g_dev_ili9325d_320x240.o
 .comment       0x0000000000000011       0x12 ./src/u8g_dev_ks0108_128x64.o
 .comment       0x0000000000000011       0x12 ./src/u8g_dev_lc7981_160x80.o
 .comment       0x0000000000000011       0x12 ./src/u8g_dev_lc7981_240x128.o
 .comment       0x0000000000000011       0x12 ./src/u8g_dev_lc7981_240x64.o
 .comment       0x0000000000000011       0x12 ./src/u8g_dev_lc7981_320x64.o
 .comment       0x0000000000000011       0x12 ./src/u8g_dev_ld7032_60x32.o
 .comment       0x0000000000000011       0x12 ./src/u8g_dev_null.o
 .comment       0x0000000000000011       0x12 ./src/u8g_dev_pcd8544_84x48.o
 .comment       0x0000000000000011       0x12 ./src/u8g_dev_pcf8812_96x65.o
 .comment       0x0000000000000011       0x12 ./src/u8g_dev_sbn1661_122x32.o
 .comment       0x0000000000000011       0x12 ./src/u8g_dev_ssd1306_128x32.o
 .comment       0x0000000000000011       0x12 ./src/u8g_dev_ssd1306_128x64.o
 .comment       0x0000000000000011       0x12 ./src/u8g_dev_ssd1306_64x48.o
 .comment       0x0000000000000011       0x12 ./src/u8g_dev_ssd1309_128x64.o
 .comment       0x0000000000000011       0x12 ./src/u8g_dev_ssd1322_nhd31oled_bw.o
 .comment       0x0000000000000011       0x12 ./src/u8g_dev_ssd1322_nhd31oled_gr.o
 .comment       0x0000000000000011       0x12 ./src/u8g_dev_ssd1325_nhd27oled_bw.o
 .comment       0x0000000000000011       0x12 ./src/u8g_dev_ssd1325_nhd27oled_bw_new.o
 .comment       0x0000000000000011       0x12 ./src/u8g_dev_ssd1325_nhd27oled_gr.o
 .comment       0x0000000000000011       0x12 ./src/u8g_dev_ssd1325_nhd27oled_gr_new.o
 .comment       0x0000000000000011       0x12 ./src/u8g_dev_ssd1327_96x96_gr.o
 .comment       0x0000000000000011       0x12 ./src/u8g_dev_ssd1351_128x128.o
 .comment       0x0000000000000011       0x12 ./src/u8g_dev_ssd1353_160x128.o
 .comment       0x0000000000000011       0x12 ./src/u8g_dev_st7565_64128n.o
 .comment       0x0000000000000011       0x12 ./src/u8g_dev_st7565_dogm128.o
 .comment       0x0000000000000011       0x12 ./src/u8g_dev_st7565_dogm132.o
 .comment       0x0000000000000011       0x12 ./src/u8g_dev_st7565_lm6059.o
 .comment       0x0000000000000011       0x12 ./src/u8g_dev_st7565_lm6063.o
 .comment       0x0000000000000011       0x12 ./src/u8g_dev_st7565_nhd_c12832.o
 .comment       0x0000000000000011       0x12 ./src/u8g_dev_st7565_nhd_c12864.o
 .comment       0x0000000000000011       0x12 ./src/u8g_dev_st7687_c144mvgd.o
 .comment       0x0000000000000011       0x12 ./src/u8g_dev_st7920_128x64.o
 .comment       0x0000000000000011       0x12 ./src/u8g_dev_st7920_192x32.o
 .comment       0x0000000000000011       0x12 ./src/u8g_dev_st7920_202x32.o
 .comment       0x0000000000000011       0x12 ./src/u8g_dev_t6963_128x128.o
 .comment       0x0000000000000011       0x12 ./src/u8g_dev_t6963_128x64.o
 .comment       0x0000000000000011       0x12 ./src/u8g_dev_t6963_240x128.o
 .comment       0x0000000000000011       0x12 ./src/u8g_dev_t6963_240x64.o
 .comment       0x0000000000000011       0x12 ./src/u8g_dev_tls8204_84x48.o
 .comment       0x0000000000000011       0x12 ./src/u8g_dev_uc1601_c128032.o
 .comment       0x0000000000000011       0x12 ./src/u8g_dev_uc1608_240x128.o
 .comment       0x0000000000000011       0x12 ./src/u8g_dev_uc1608_240x64.o
 .comment       0x0000000000000011       0x12 ./src/u8g_dev_uc1610_dogxl160.o
 .comment       0x0000000000000011       0x12 ./src/u8g_dev_uc1611_dogm240.o
 .comment       0x0000000000000011       0x12 ./src/u8g_dev_uc1611_dogxl240.o
 .comment       0x0000000000000011       0x12 ./src/u8g_dev_uc1701_dogs102.o
 .comment       0x0000000000000011       0x12 ./src/u8g_dev_uc1701_mini12864.o
 .comment       0x0000000000000011       0x12 ./src/u8g_ellipse.o
 .comment       0x0000000000000011       0x12 ./src/u8g_font.o
 .comment       0x0000000000000011       0x12 ./src/u8g_font_data.o
 .comment       0x0000000000000011       0x12 ./src/u8g_line.o
 .comment       0x0000000000000011       0x12 ./src/u8g_ll_api.o
 .comment       0x0000000000000011       0x12 ./src/u8g_page.o
 .comment       0x0000000000000011       0x12 ./src/u8g_pb.o
 .comment       0x0000000000000011       0x12 ./src/u8g_pb14v1.o
 .comment       0x0000000000000011       0x12 ./src/u8g_pb16h1.o
 .comment       0x0000000000000011       0x12 ./src/u8g_pb16h2.o
 .comment       0x0000000000000011       0x12 ./src/u8g_pb16v1.o
 .comment       0x0000000000000011       0x12 ./src/u8g_pb16v2.o
 .comment       0x0000000000000011       0x12 ./src/u8g_pb32h1.o
 .comment       0x0000000000000011       0x12 ./src/u8g_pb8h1.o
 .comment       0x0000000000000011       0x12 ./src/u8g_pb8h1f.o
 .comment       0x0000000000000011       0x12 ./src/u8g_pb8h2.o
 .comment       0x0000000000000011       0x12 ./src/u8g_pb8h8.o
 .comment       0x0000000000000011       0x12 ./src/u8g_pb8v1.o
 .comment       0x0000000000000011       0x12 ./src/u8g_pb8v2.o
 .comment       0x0000000000000011       0x12 ./src/u8g_pbxh16.o
 .comment       0x0000000000000011       0x12 ./src/u8g_pbxh24.o
 .comment       0x0000000000000011       0x12 ./src/u8g_polygon.o
 .comment       0x0000000000000011       0x12 ./src/u8g_rect.o
 .comment       0x0000000000000011       0x12 ./src/u8g_rot.o
 .comment       0x0000000000000011       0x12 ./src/u8g_scale.o
 .comment       0x0000000000000011       0x12 ./src/u8g_state.o
 .comment       0x0000000000000011       0x12 ./src/u8g_u16toa.o
 .comment       0x0000000000000011       0x12 ./src/u8g_u8toa.o
 .comment       0x0000000000000011       0x12 ./src/u8g_virtual_screen.o
 .comment       0x0000000000000011       0x12 ./main.o

.note.gnu.avr.deviceinfo
                0x0000000000000000       0x3c
 .note.gnu.avr.deviceinfo
                0x0000000000000000       0x3c /usr/local/Cellar/avr-gcc/7.2.0/lib/avr-gcc/7/gcc/avr/7.2.0/../../../../../../avr/lib/avr5/crtatmega16.o

.avr.prop       0x0000000000000000      0x276
 .avr.prop      0x0000000000000000       0x16 ./src/chessengine.o
 .avr.prop      0x0000000000000016       0x16 ./src/u8g_com_arduino_ssd_i2c.o
 .avr.prop      0x000000000000002c       0x16 ./src/u8g_com_arduino_uc_i2c.o
 .avr.prop      0x0000000000000042       0x16 ./src/u8g_com_atmega_hw_spi.o
 .avr.prop      0x0000000000000058       0x16 ./src/u8g_com_atmega_parallel.o
 .avr.prop      0x000000000000006e       0x16 ./src/u8g_com_atmega_st7920_hw_spi.o
 .avr.prop      0x0000000000000084       0x16 ./src/u8g_com_atmega_st7920_spi.o
 .avr.prop      0x000000000000009a       0x16 ./src/u8g_com_atmega_sw_spi.o
 .avr.prop      0x00000000000000b0       0x16 ./src/u8g_com_std_sw_spi.o
 .avr.prop      0x00000000000000c6       0x16 ./src/u8g_dev_gprof.o
 .avr.prop      0x00000000000000dc       0x16 ./src/u8g_dev_null.o
 .avr.prop      0x00000000000000f2       0x16 ./src/u8g_pb14v1.o
 .avr.prop      0x0000000000000108       0x16 ./src/u8g_pb16h1.o
 .avr.prop      0x000000000000011e       0x16 ./src/u8g_pb16h2.o
 .avr.prop      0x0000000000000134       0x16 ./src/u8g_pb16v1.o
 .avr.prop      0x000000000000014a       0x16 ./src/u8g_pb16v2.o
 .avr.prop      0x0000000000000160       0x16 ./src/u8g_pb32h1.o
 .avr.prop      0x0000000000000176       0x16 ./src/u8g_pb8h1.o
 .avr.prop      0x000000000000018c       0x16 ./src/u8g_pb8h1f.o
 .avr.prop      0x00000000000001a2       0x16 ./src/u8g_pb8h2.o
 .avr.prop      0x00000000000001b8       0x16 ./src/u8g_pb8h8.o
 .avr.prop      0x00000000000001ce       0x16 ./src/u8g_pb8v1.o
 .avr.prop      0x00000000000001e4       0x16 ./src/u8g_pb8v2.o
 .avr.prop      0x00000000000001fa       0x16 ./src/u8g_pbxh16.o
 .avr.prop      0x0000000000000210       0x16 ./src/u8g_pbxh24.o
 .avr.prop      0x0000000000000226       0x3a ./src/u8g_rot.o
 .avr.prop      0x0000000000000260       0x16 ./src/u8g_virtual_screen.o

.note.gnu.build-id
 *(.note.gnu.build-id)

.debug
 *(.debug)

.line
 *(.line)

.debug_srcinfo
 *(.debug_srcinfo)

.debug_sfnames
 *(.debug_sfnames)

.debug_aranges  0x0000000000000000       0xe0
 *(.debug_aranges)
 .debug_aranges
                0x0000000000000000       0x20 /usr/local/Cellar/avr-gcc/7.2.0/lib/avr-gcc/7/gcc/avr/7.2.0/avr5/libgcc.a(_divmodhi4.o)
 .debug_aranges
                0x0000000000000020       0x20 /usr/local/Cellar/avr-gcc/7.2.0/lib/avr-gcc/7/gcc/avr/7.2.0/avr5/libgcc.a(_exit.o)
 .debug_aranges
                0x0000000000000040       0x20 /usr/local/Cellar/avr-gcc/7.2.0/lib/avr-gcc/7/gcc/avr/7.2.0/avr5/libgcc.a(_tablejump2.o)
 .debug_aranges
                0x0000000000000060       0x20 /usr/local/Cellar/avr-gcc/7.2.0/lib/avr-gcc/7/gcc/avr/7.2.0/avr5/libgcc.a(_copy_data.o)
 .debug_aranges
                0x0000000000000080       0x20 /usr/local/Cellar/avr-gcc/7.2.0/lib/avr-gcc/7/gcc/avr/7.2.0/avr5/libgcc.a(_clear_bss.o)
 .debug_aranges
                0x00000000000000a0       0x20 /usr/local/Cellar/avr-gcc/7.2.0/lib/avr-gcc/7/gcc/avr/7.2.0/avr5/libgcc.a(_umulhisi3.o)
 .debug_aranges
                0x00000000000000c0       0x20 /usr/local/Cellar/avr-gcc/7.2.0/lib/avr-gcc/7/gcc/avr/7.2.0/avr5/libgcc.a(_udivmodhi4.o)

.debug_pubnames
 *(.debug_pubnames)

.debug_info     0x0000000000000000      0x638
 *(.debug_info .gnu.linkonce.wi.*)
 .debug_info    0x0000000000000000      0x52e /usr/local/Cellar/avr-gcc/7.2.0/lib/avr-gcc/7/gcc/avr/7.2.0/../../../../../../avr/lib/avr5/crtatmega16.o
 .debug_info    0x000000000000052e       0x26 /usr/local/Cellar/avr-gcc/7.2.0/lib/avr-gcc/7/gcc/avr/7.2.0/avr5/libgcc.a(_divmodhi4.o)
 .debug_info    0x0000000000000554       0x26 /usr/local/Cellar/avr-gcc/7.2.0/lib/avr-gcc/7/gcc/avr/7.2.0/avr5/libgcc.a(_exit.o)
 .debug_info    0x000000000000057a       0x26 /usr/local/Cellar/avr-gcc/7.2.0/lib/avr-gcc/7/gcc/avr/7.2.0/avr5/libgcc.a(_tablejump2.o)
 .debug_info    0x00000000000005a0       0x26 /usr/local/Cellar/avr-gcc/7.2.0/lib/avr-gcc/7/gcc/avr/7.2.0/avr5/libgcc.a(_copy_data.o)
 .debug_info    0x00000000000005c6       0x26 /usr/local/Cellar/avr-gcc/7.2.0/lib/avr-gcc/7/gcc/avr/7.2.0/avr5/libgcc.a(_clear_bss.o)
 .debug_info    0x00000000000005ec       0x26 /usr/local/Cellar/avr-gcc/7.2.0/lib/avr-gcc/7/gcc/avr/7.2.0/avr5/libgcc.a(_umulhisi3.o)
 .debug_info    0x0000000000000612       0x26 /usr/local/Cellar/avr-gcc/7.2.0/lib/avr-gcc/7/gcc/avr/7.2.0/avr5/libgcc.a(_udivmodhi4.o)

.debug_abbrev   0x0000000000000000      0x573
 *(.debug_abbrev)
 .debug_abbrev  0x0000000000000000      0x4e7 /usr/local/Cellar/avr-gcc/7.2.0/lib/avr-gcc/7/gcc/avr/7.2.0/../../../../../../avr/lib/avr5/crtatmega16.o
 .debug_abbrev  0x00000000000004e7       0x14 /usr/local/Cellar/avr-gcc/7.2.0/lib/avr-gcc/7/gcc/avr/7.2.0/avr5/libgcc.a(_divmodhi4.o)
 .debug_abbrev  0x00000000000004fb       0x14 /usr/local/Cellar/avr-gcc/7.2.0/lib/avr-gcc/7/gcc/avr/7.2.0/avr5/libgcc.a(_exit.o)
 .debug_abbrev  0x000000000000050f       0x14 /usr/local/Cellar/avr-gcc/7.2.0/lib/avr-gcc/7/gcc/avr/7.2.0/avr5/libgcc.a(_tablejump2.o)
 .debug_abbrev  0x0000000000000523       0x14 /usr/local/Cellar/avr-gcc/7.2.0/lib/avr-gcc/7/gcc/avr/7.2.0/avr5/libgcc.a(_copy_data.o)
 .debug_abbrev  0x0000000000000537       0x14 /usr/local/Cellar/avr-gcc/7.2.0/lib/avr-gcc/7/gcc/avr/7.2.0/avr5/libgcc.a(_clear_bss.o)
 .debug_abbrev  0x000000000000054b       0x14 /usr/local/Cellar/avr-gcc/7.2.0/lib/avr-gcc/7/gcc/avr/7.2.0/avr5/libgcc.a(_umulhisi3.o)
 .debug_abbrev  0x000000000000055f       0x14 /usr/local/Cellar/avr-gcc/7.2.0/lib/avr-gcc/7/gcc/avr/7.2.0/avr5/libgcc.a(_udivmodhi4.o)

.debug_line     0x0000000000000000      0x456
 *(.debug_line .debug_line.* .debug_line_end)
 .debug_line    0x0000000000000000       0x1d /usr/local/Cellar/avr-gcc/7.2.0/lib/avr-gcc/7/gcc/avr/7.2.0/../../../../../../avr/lib/avr5/crtatmega16.o
 .debug_line    0x000000000000001d       0xc7 /usr/local/Cellar/avr-gcc/7.2.0/lib/avr-gcc/7/gcc/avr/7.2.0/avr5/libgcc.a(_divmodhi4.o)
 .debug_line    0x00000000000000e4       0x61 /usr/local/Cellar/avr-gcc/7.2.0/lib/avr-gcc/7/gcc/avr/7.2.0/avr5/libgcc.a(_exit.o)
 .debug_line    0x0000000000000145       0x79 /usr/local/Cellar/avr-gcc/7.2.0/lib/avr-gcc/7/gcc/avr/7.2.0/avr5/libgcc.a(_tablejump2.o)
 .debug_line    0x00000000000001be       0x97 /usr/local/Cellar/avr-gcc/7.2.0/lib/avr-gcc/7/gcc/avr/7.2.0/avr5/libgcc.a(_copy_data.o)
 .debug_line    0x0000000000000255       0x85 /usr/local/Cellar/avr-gcc/7.2.0/lib/avr-gcc/7/gcc/avr/7.2.0/avr5/libgcc.a(_clear_bss.o)
 .debug_line    0x00000000000002da       0xaf /usr/local/Cellar/avr-gcc/7.2.0/lib/avr-gcc/7/gcc/avr/7.2.0/avr5/libgcc.a(_umulhisi3.o)
 .debug_line    0x0000000000000389       0xcd /usr/local/Cellar/avr-gcc/7.2.0/lib/avr-gcc/7/gcc/avr/7.2.0/avr5/libgcc.a(_udivmodhi4.o)

.debug_frame
 *(.debug_frame)

.debug_str      0x0000000000000000      0x231
 *(.debug_str)
 .debug_str     0x0000000000000000      0x1af /usr/local/Cellar/avr-gcc/7.2.0/lib/avr-gcc/7/gcc/avr/7.2.0/../../../../../../avr/lib/avr5/crtatmega16.o
 .debug_str     0x00000000000001af       0x82 /usr/local/Cellar/avr-gcc/7.2.0/lib/avr-gcc/7/gcc/avr/7.2.0/avr5/libgcc.a(_divmodhi4.o)
 .debug_str     0x0000000000000231       0x82 /usr/local/Cellar/avr-gcc/7.2.0/lib/avr-gcc/7/gcc/avr/7.2.0/avr5/libgcc.a(_exit.o)
 .debug_str     0x0000000000000231       0x82 /usr/local/Cellar/avr-gcc/7.2.0/lib/avr-gcc/7/gcc/avr/7.2.0/avr5/libgcc.a(_tablejump2.o)
 .debug_str     0x0000000000000231       0x82 /usr/local/Cellar/avr-gcc/7.2.0/lib/avr-gcc/7/gcc/avr/7.2.0/avr5/libgcc.a(_copy_data.o)
 .debug_str     0x0000000000000231       0x82 /usr/local/Cellar/avr-gcc/7.2.0/lib/avr-gcc/7/gcc/avr/7.2.0/avr5/libgcc.a(_clear_bss.o)
 .debug_str     0x0000000000000231       0x82 /usr/local/Cellar/avr-gcc/7.2.0/lib/avr-gcc/7/gcc/avr/7.2.0/avr5/libgcc.a(_umulhisi3.o)
 .debug_str     0x0000000000000231       0x82 /usr/local/Cellar/avr-gcc/7.2.0/lib/avr-gcc/7/gcc/avr/7.2.0/avr5/libgcc.a(_udivmodhi4.o)

.debug_loc
 *(.debug_loc)

.debug_macinfo
 *(.debug_macinfo)

.debug_weaknames
 *(.debug_weaknames)

.debug_funcnames
 *(.debug_funcnames)

.debug_typenames
 *(.debug_typenames)

.debug_varnames
 *(.debug_varnames)

.debug_pubtypes
 *(.debug_pubtypes)

.debug_ranges
 *(.debug_ranges)

.debug_macro
 *(.debug_macro)

.debug_addr
 *(.debug_addr)
OUTPUT(10_LED_WIFI_RX.elf elf32-avr)
LOAD linker stubs
